# file opened: os_main.asm
   1  0000              ;OS GMX (izzx, 2024-2025)
   2  0000                 device ZXSPECTRUM128
   3  0000              	include "os_defs.asm"
# file opened: os_defs.asm
   1+ 0000              ;Список всех вызовов (функций) ОС GMX
   2+ 0000
   3+ 0000              ;Включить в свой код (в начале файла):
   4+ 0000              	; include os_defs.asm
   5+ 0000
   6+ 0000              ;Использовать только имена функций, коды могут поменяться
   7+ 0000
   8+ 0000              ;например:
   9+ 0000              	; org PROG_START
  10+ 0000              	; ../include os_defs.asm
  11+ 0000              	; ld hl,text
  12+ 0000              	; OS_PRINTZ ;печать	до кода 0
  13+ 0000
  14+ 0000              ;сохранность регистров не гарантируется
  15+ 0000              ;на выходе обычно (но не всегда) CY=1 = ошибка
  16+ 0000
  17+ 0000              PROG_START equ #8000 ;адрес старта приложений
  18+ 0000
  19+ 0000
  20+ 0000              ;короткие вызовы (именные RST) -------------------------
  21+ 0000
  22+ 0000              ;печать символа в консоль (ускоренная)
  23+ 0000              	MACRO OS_PRINT_CHARF ;a=char
  24+ 0000 ~            	rst #10
  25+ 0000              	ENDM
  26+ 0000
  27+ 0000
  28+ 0000              ;передача управления ОС до следующего прерывания (когда придёт очередь процесса в следующий раз);
  29+ 0000              ;все регистры сохраняются
  30+ 0000              ;рекомендуется использовать вместо обычного halt
  31+ 0000              	MACRO OS_WAIT
  32+ 0000 ~            	rst #18
  33+ 0000              	ENDM
  34+ 0000
  35+ 0000              	; MACRO OS_
  36+ 0000              	; rst #28
  37+ 0000              	; ENDM
  38+ 0000
  39+ 0000              	; MACRO OS_
  40+ 0000              	; rst #30
  41+ 0000              	; ENDM
  42+ 0000
  43+ 0000
  44+ 0000
  45+ 0000              ;вызовы через единую точку входа RST #20 ----------------
  46+ 0000
  47+ 0000              ;вывод в консоль --------------------
  48+ 0000
  49+ 0000              ;очистить консоль
  50+ 0000              	macro OS_CLS ;clear visible area of terminal
  51+ 0000 ~                ld c,#00
  52+ 0000 ~                rst #20
  53+ 0000                  endm
  54+ 0000
  55+ 0000              ;установить позицию курсора в консоли
  56+ 0000                  macro OS_SET_XY ;de=yx ;SET CURSOR POSITION
  57+ 0000 ~                ld c,#01
  58+ 0000 ~                rst #20
  59+ 0000                  endm
  60+ 0000
  61+ 0000              ;печать символа в консоль
  62+ 0000                  macro OS_PRINT_CHAR ;a=char
  63+ 0000 ~                ld c,#02
  64+ 0000 ~                rst #20
  65+ 0000                  endm
  66+ 0000
  67+ 0000              ;заполнение строки одним символом
  68+ 0000                  macro OS_FILL_LINE ;; H - line ; A - char
  69+ 0000 ~                ld c,#03
  70+ 0000 ~                rst #20
  71+ 0000                  endm
  72+ 0000
  73+ 0000              ;покрасить строку цветом
  74+ 0000                  macro OS_PAINT_LINE ;a - line, b - color
  75+ 0000 ~                ld c,#04
  76+ 0000 ~                rst #20
  77+ 0000                  endm
  78+ 0000
  79+ 0000
  80+ 0000                  ; macro OS_ ;
  81+ 0000                  ; ld c,#05
  82+ 0000                  ; rst #20
  83+ 0000                  ; endm
  84+ 0000
  85+ 0000              ;установить цвет текста в консоли;
  86+ 0000                  macro OS_SET_COLOR ;a = color, b = color 2 (highlight)
  87+ 0000 ~                ld c,#06
  88+ 0000 ~                rst #20
  89+ 0000                  endm
  90+ 0000
  91+ 0000                  ; macro OS_ ;
  92+ 0000                  ; ld c,#07
  93+ 0000                  ; rst #20
  94+ 0000                  ; endm
  95+ 0000
  96+ 0000
  97+ 0000              ;включить/выключить моно режим для приложения
  98+ 0000              ;при включенном режиме разрешена запись в диапазон памяти #4000-#7fff + страницы приложения
  99+ 0000              ;вх: a = 0 - включить; a = 255 - выключить
 100+ 0000                  macro OS_SET_MONO_MODE ;
 101+ 0000 ~                ld c,#08
 102+ 0000 ~                rst #20
 103+ 0000                  endm
 104+ 0000
 105+ 0000
 106+ 0000
 107+ 0000              ;печать в консоль до кода 0
 108+ 0000                  macro OS_PRINTZ ;hl=text ;PRINT to 0
 109+ 0000 ~                ld c,#09
 110+ 0000 ~                rst #20
 111+ 0000                  endm
 112+ 0000
 113+ 0000
 114+ 0000              ;прочитать байт из порта uart
 115+ 0000              ;вх:
 116+ 0000              ;вых: CY=0 - OK; CY=1 - занято другим процессом или нет uart или нет данных для приёма
 117+ 0000              ;вых: A - считанный байт
 118+ 0000                  macro OS_UART_READ
 119+ 0000 ~                ld c,#0a
 120+ 0000 ~                rst #20
 121+ 0000                  endm
 122+ 0000
 123+ 0000              ;записать байт в порт uart
 124+ 0000              ;вх: A -байт
 125+ 0000              ;вых: CY=0 - OK; CY=1 - занято другим процессом или нет uart
 126+ 0000                  macro OS_UART_WRITE
 127+ 0000 ~                ld c,#0b
 128+ 0000 ~                rst #20
 129+ 0000                  endm
 130+ 0000
 131+ 0000              ;закрыть соединение ESP
 132+ 0000              ;вх:
 133+ 0000              ;вых: CY=0 - OK; CY=1 - занято другим процессом или нет uart
 134+ 0000                  macro OS_ESP_CLOSE
 135+ 0000 ~                ld c,#0c
 136+ 0000 ~                rst #20
 137+ 0000                  endm
 138+ 0000
 139+ 0000              ;установить соединение ESP (CIPSTART);
 140+ 0000              ;вх: a - тип соединения 0-tcp, 1-udp, 2-ssl; 3-прямое соединение с портом; hl - строка адрес, de - строка порт
 141+ 0000              ;вых: CY=0 - OK; CY=1 - занято другим процессом или нет uart
 142+ 0000              ;вых: ix - адрес в таблице соединений (ix+2 - флаг открытия =1 - открыто, 255 - ошибка);
 143+ 0000                  macro OS_ESP_OPEN
 144+ 0000 ~                ld c,#0d
 145+ 0000 ~                rst #20
 146+ 0000                  endm
 147+ 0000
 148+ 0000              ;послать запрос ESP (CIPSEND);
 149+ 0000              ;вх: hl - адрес данных, de - длина данных
 150+ 0000              ;вых: CY=0 - OK; CY=1 - занято другим процессом или нет uart
 151+ 0000              ;вых: ix - адрес в таблице соединений (ix+4 - флаг =1 - отправлено, 255 - ошибка)
 152+ 0000                  macro OS_ESP_SEND
 153+ 0000 ~                ld c,#0e
 154+ 0000 ~                rst #20
 155+ 0000                  endm
 156+ 0000
 157+ 0000              ;получить пакет ESP (+IPD);
 158+ 0000              ;вх: hl - адрес для данных
 159+ 0000              ;вых: CY=0 - OK; CY=1 - занято другим процессом или нет uart
 160+ 0000              ;вых: ix - адрес в таблице соединений (ix+6 - флаг =1 - принято, 255 - ошибка)
 161+ 0000                  macro OS_ESP_GET
 162+ 0000 ~                ld c,#0f
 163+ 0000 ~                rst #20
 164+ 0000                  endm
 165+ 0000
 166+ 0000              ;ввод с консоли ----------------------
 167+ 0000
 168+ 0000              ;получить код нажатой клавиши
 169+ 0000                  macro OS_GET_CHAR ;read char from stdin (out: A=char, 255-no char)
 170+ 0000 ~                ld c,#10
 171+ 0000 ~                rst #20
 172+ 0000                  endm
 173+ 0000
 174+ 0000
 175+ 0000              ;процессы ----------------------------
 176+ 0000
 177+ 0000              ;запустить процесс
 178+ 0000              ;вх: hl - имя файла (заканчивается на 0)
 179+ 0000                  macro OS_PROC_RUN ;
 180+ 0000 ~                ld c,#11
 181+ 0000 ~                rst #20
 182+ 0000                  endm
 183+ 0000
 184+ 0000              ;установить фокус
 185+ 0000              ;вх: a - id процесса
 186+ 0000                  macro OS_PROC_SET_FOCUS ;
 187+ 0000 ~                ld c,#12
 188+ 0000 ~                rst #20
 189+ 0000                  endm
 190+ 0000
 191+ 0000              ;закрыть процесс
 192+ 0000              ;вх: A - ID процесса. Если A=0, закрыть текущий (себя)
 193+ 0000              ;останавливается процесс и освобождаются все его страницы памяти, файлы, соединения
 194+ 0000                  macro OS_PROC_CLOSE ;
 195+ 0000 ~                ld c,#13
 196+ 0000 ~                rst #20
 197+ 0000                  endm
 198+ 0000
 199+ 0000
 200+ 0000              ;прерывания --------------------------
 201+ 0000
 202+ 0000              ;установка адреса обработчика прерываний процесса;
 203+ 0000              ;например, плеера музыки
 204+ 0000              ;включать прерывания во время работы обработчика нельзя. время работы, по возможности, минимальное
 205+ 0000              ;на время выполнения включаются обе страницы процесса
 206+ 0000                  macro OS_SET_INTER ;(HL - address, address = 0 = отключить)
 207+ 0000 ~                ld c,#14
 208+ 0000 ~                rst #20
 209+ 0000                  endm
 210+ 0000
 211+ 0000
 212+ 0000              ;плеер AY ----------------------------
 213+ 0000
 214+ 0000              ;инициализация плеера AY;
 215+ 0000                  macro OS_VTPL_INIT ;(HL - address music)
 216+ 0000 ~                ld c,#15
 217+ 0000 ~                rst #20
 218+ 0000                  endm
 219+ 0000
 220+ 0000              ;запустить плеер AY (система будет сама вызывать его каждое прерывание);
 221+ 0000                  macro OS_VTPL_PLAY ;()
 222+ 0000 ~                ld c,#16
 223+ 0000 ~                rst #20
 224+ 0000                  endm
 225+ 0000
 226+ 0000              ;заглушить плеер AY;
 227+ 0000                  macro OS_VTPL_MUTE ;()
 228+ 0000 ~                ld c,#17
 229+ 0000 ~                rst #20
 230+ 0000                  endm
 231+ 0000
 232+ 0000              ;получить значение переменной плеера;
 233+ 0000                  macro OS_GET_VTPL_SETUP ;(out: HL - setup address)
 234+ 0000 ~                ld c,#18
 235+ 0000 ~                rst #20
 236+ 0000                  endm
 237+ 0000
 238+ 0000
 239+ 0000              ;прочие ------------------------------
 240+ 0000
 241+ 0000
 242+ 0000              ;скопировать данные из страницы в страницу
 243+ 0000              ;вх: hl - откуда (абсолютный адрес 0-ffff); de - куда; ix - длина; a - страница слот2; b - страница слот3;
 244+ 0000                  macro OS_RAM_COPY
 245+ 0000 ~                ld c,#19
 246+ 0000 ~                rst #20
 247+ 0000                  endm
 248+ 0000
 249+ 0000              ;получить дополнительную страницу памяти;
 250+ 0000                  macro OS_GET_PAGE ;(out A - number page)
 251+ 0000 ~                ld c,#1a
 252+ 0000 ~                rst #20
 253+ 0000                  endm
 254+ 0000
 255+ 0000              ;включить страницу в слот 2 (#8000); предварительно зарезервировать страницу OS_GET_PAGE
 256+ 0000                  macro OS_SET_PAGE_SLOT2 ;(A - page number)
 257+ 0000 ~                ld c,#1b
 258+ 0000 ~                rst #20
 259+ 0000                  endm
 260+ 0000
 261+ 0000              ;включить страницу в слот 3 (#C000); предварительно зарезервировать страницу OS_GET_PAGE
 262+ 0000                  macro OS_SET_PAGE_SLOT3 ;(A - page number)
 263+ 0000 ~                ld c,#1c
 264+ 0000 ~                rst #20
 265+ 0000                  endm
 266+ 0000
 267+ 0000              ;включить экран N;
 268+ 0000              ;вх: A - номер экрана (5, 7, #39, #3a; 0 = текстовый)
 269+ 0000              ;переключать может только приложение в фокусе
 270+ 0000              ;если режим не текстовый, то приложение работает только когда в фокусе. Иначе временно останавливается.
 271+ 0000              ;при переключении процессов сохраняется только экран #39
 272+ 0000                  macro OS_SET_SCREEN ;
 273+ 0000 ~                ld c,#1d
 274+ 0000 ~                rst #20
 275+ 0000                  endm
 276+ 0000
 277+ 0000
 278+ 0000              ;получить номера страниц процесса;
 279+ 0000              ;вх:
 280+ 0000              ;вых: b, c - страницы в слотах 2, 3
 281+ 0000                  macro OS_GET_MAIN_PAGES ;
 282+ 0000 ~                ld c,#1e
 283+ 0000 ~                rst #20
 284+ 0000                  endm
 285+ 0000
 286+ 0000              ;получить значение системного таймера
 287+ 0000                  macro OS_GET_TIMER ;(out: HL, DE - timer)
 288+ 0000 ~                ld c,#1F
 289+ 0000 ~                rst #20
 290+ 0000                  endm
 291+ 0000
 292+ 0000
 293+ 0000              ;освободить страницу памяти
 294+ 0000              ;вх: a - номер страницы
 295+ 0000                  macro OS_DEL_PAGE ;
 296+ 0000 ~                ld c,#20
 297+ 0000 ~                rst #20
 298+ 0000                  endm
 299+ 0000
 300+ 0000
 301+ 0000              ;дисковые операции -------------------
 302+ 0000
 303+ 0000              ; менять напрямую что-то в таблице fcb из приложения не рекомендуется, только для чтения
 304+ 0000
 305+ 0000              ; fcbFAT (из руководства к монитору)
 306+ 0000              ; формат fcb для работы с FAT
 307+ 0000
 308+ 0000              ; +#00 8 имя файла
 309+ 0000              ; +#08 3 расширение файла
 310+ 0000              ; +#0B 1 атрибуты файла
 311+ 0000              ; +#0C 4 номер первого кластера файла/каталога
 312+ 0000              ; +#10 4 номер первого кластера каталога с этим файлом/каталогом
 313+ 0000              ; +#14 4 размер файла/каталога в байтах
 314+ 0000              ; +#18 4 указатель в файле
 315+ 0000              ; +#1C 1 для внутренних нужд
 316+ 0000              ; +#1D 1 для внутренних нужд
 317+ 0000              ; +#1E 1 резерв
 318+ 0000              ; +#1F 1 номер винчестера и раздела на нем
 319+ 0000              	; 1-0,nn номер раздела
 320+ 0000              	; 3-2,=00/01/10 HDD master/HDD slave/SD
 321+ 0000              	    ; значение %11 недопустимо
 322+ 0000
 323+ 0000              ;открыть файл для чтения или записи
 324+ 0000                  macro OS_FILE_OPEN ;HL - File name (out: A - id file, de bc - size, IX - fcb)
 325+ 0000 ~                ld c,#21
 326+ 0000 ~                rst #20
 327+ 0000                  endm
 328+ 0000
 329+ 0000              ;создать файл
 330+ 0000                  macro OS_FILE_CREATE ;HL - File name  (out: A - id file, IX - fcb)
 331+ 0000 ~                ld c,#22
 332+ 0000 ~                rst #20
 333+ 0000                  endm
 334+ 0000
 335+ 0000              ;прочитать из файла
 336+ 0000                  macro OS_FILE_READ ;HL - address, A - id file, DE - length (out: hl - следующий адрес для чтения)
 337+ 0000 ~                ld c,#23
 338+ 0000 ~                rst #20
 339+ 0000                  endm
 340+ 0000
 341+ 0000              ;записать в файл
 342+ 0000                  macro OS_FILE_WRITE ;HL - address, A - id file, DE - length (out: hl - следующий адрес для чтения)
 343+ 0000 ~                ld c,#24
 344+ 0000 ~                rst #20
 345+ 0000                  endm
 346+ 0000
 347+ 0000              ;закрыть файл
 348+ 0000                  macro OS_FILE_CLOSE ;A - id file
 349+ 0000 ~                ld c,#25
 350+ 0000 ~                rst #20
 351+ 0000                  endm
 352+ 0000
 353+ 0000              ;чтение секторов текущего каталога
 354+ 0000              ; вх:
 355+ 0000                   ; hl - буфер для чтения
 356+ 0000                   ; de - относительный номер первого сектора каталога для чтения [0..nn]
 357+ 0000                   ; b - максимальное количество секторов для чтения
 358+ 0000              ; вых: cy=1, если были ошибки, код ошибки возвращается в аккумуляторе
 359+ 0000                     ; a=errRWnum
 360+ 0000                     ; a=errInvalidPart
 361+ 0000                     ; a=errFileEmpty
 362+ 0000                   ; cy=0, a=errEoF - каталог закончился
 363+ 0000                     ; hl - следующий адрес в буфере
 364+ 0000                     ; de - номер первого непрочитанного сектора
 365+ 0000                     ; b - не прочитано секторов
 366+ 0000                   ; cy=0 - считано успешно
 367+ 0000                     ; hl - следующий адрес в буфере
 368+ 0000                     ; de - номер первого непрочитанного сектора
 369+ 0000                     ; b=#00
 370+ 0000                  macro OS_DIR_READ ;
 371+ 0000 ~                ld c,#26
 372+ 0000 ~                rst #20
 373+ 0000                  endm
 374+ 0000
 375+ 0000              ;вход в каталог/выход в родительский каталог
 376+ 0000              	; Если путь не указан производится только настройка переменных драйвера,
 377+ 0000              	; при этом если передан дескриптор файла, текущий каталог не изменится)
 378+ 0000              	; Если пусть указан, в конец пути добавится название каталога (если это
 379+ 0000              	; переход в родительский, последнее имя в пути удалится).
 380+ 0000              	; Если передан дескриптор файла, текущий каталог не изменится, к пути
 381+ 0000              	; добавится имя файла
 382+ 0000              ; вх:
 383+ 0000                   ; hl - адрес пути (=#0000 - путь отсутствует)
 384+ 0000                   ; de - адрес дескриптора директории/файла
 385+ 0000              ; вых: a - если путь был указан, новая длина пути
 386+ 0000                  macro OS_DIR_OPEN ;
 387+ 0000 ~                ld c,#27
 388+ 0000 ~                rst #20
 389+ 0000                  endm
 390+ 0000
 391+ 0000              ;установка/чтение указателя в файле (Переменная +#18-#1b fcb)
 392+ 0000              ;проверки на допустимость значений не производится
 393+ 0000              ;вх: CY = 1 - установка; CY = 0 - чтение
 394+ 0000              ;вх: A - id файла
 395+ 0000              ;вх: de, hl - значения старшие быйты, младшие
 396+ 0000              ;вых: de, hl - значения старшие быйты, младшие
 397+ 0000                  macro OS_FILE_POSITION ;
 398+ 0000 ~                ld c,#28
 399+ 0000 ~                rst #20
 400+ 0000                  endm
 401+ 0000
 402+ 0000              ; поиск файла или каталога по заданному пути, начиная от корневого, со входом в подкаталоги
 403+ 0000              ;вх: hl - путь к файлу в формате ASCIZ (не более 250 байт, заканчивается нулем)
 404+ 0000              	 ;формат пути: \[DIR\DIR\..\DIR\]filename.ext	(можно без имени файла, только каталоги)
 405+ 0000              ;вх: a=#00/#FF - без установки каталога/с установкой найденного каталога текущим
 406+ 0000                  macro OS_FIND_PATH ;
 407+ 0000 ~                ld c,#29
 408+ 0000 ~                rst #20
 409+ 0000                  endm
 410+ 0000
 411+ 0000
 412+ 0000              ; получение длинного имени файла
 413+ 0000              ;вх: hl - адрес буфера для имени
 414+ 0000              ;    de - номер записи в текущем каталоге
 415+ 0000              ;вых: hl - в буфере имя в формате ASCIZ (если длинное имя отсутсвует, то возвращается короткое имя)
 416+ 0000              ; 	a - длина имени, с учетом нуля
 417+ 0000                  macro OS_GET_LFN ;
 418+ 0000 ~                ld c,#2a
 419+ 0000 ~                rst #20
 420+ 0000                  endm
 421+ 0000
# file closed: os_defs.asm
   4  0000
   5  0000              ;sys - системный процесс для OS
   6  0000              	org PROG_START
   7  8000              	;bank 1
   8  8000              start_sys
   9  8000 FB           	ei
  10  8001              	;halt ;ожидание старта после прерывания
  11  8001              	;halt
  12  8001 AF           	xor a
  13  8002 D3 FE        	out (254),a
  14  8004 21 19 36     	ld hl,msg_ver_os
  15  8007              	;печать приветствия
  16  8007 CD 80 0A     	call drvgmx.printZ
  17  800A
  18  800A 11 00 18     	ld de,#1800 ;координаты yx
  19  800D              	OS_SET_XY
  19  800D 0E 01       >    ld c,#01
  19  800F E7          >    rst #20
  20  8010 21 B6 82     	ld hl,msg_press_num_to_close
  21  8013              	OS_PRINTZ
  21  8013 0E 09       >    ld c,#09
  21  8015 E7          >    rst #20
  22  8016
  23  8016              	;автозапуск приложений
  24  8016 11 00 17     	ld de,#1700 ;координаты yx
  25  8019              	OS_SET_XY
  25  8019 0E 01       >    ld c,#01
  25  801B E7          >    rst #20
  26  801C 21 09 83     	ld hl,sys_file_autorun_name ;имя списка
  27  801F CD F0 0C     	call Dos.fopen_r ;откроем файл для чтения
  28  8022 DC 5F 0E     	call c,Dos.file_error_print_file_open_error
  29  8025 DA A4 80     	jp c,sys_loop
  30  8028 32 08 83     	ld (sys_file_autorun_id_tmp),a ;запомнить id
  31  802B
  32  802B              	;проверка длины файла не больше #8000
  33  802B 7A           	ld	a,d ;самые старшие байты длины
  34  802C B3           	or e
  35  802D 28 09        	jr z,sys_file_size_ok ;если не слищком большой
  36  802F              sys_file_too_big
  37  802F 21 72 10     	ld hl,Dos.msg_file_too_big
  38  8032 CD 80 0A     	call drvgmx.printZ
  39  8035 C3 A4 80     	jp sys_loop
  40  8038
  41  8038
  42  8038              sys_file_size_ok
  43  8038 78           	ld	a,b ;младший старший байт длины
  44  8039 FE 80        	cp #80
  45  803B 30 F2        	jr nc,sys_file_too_big
  46  803D              	;размер нормальный, прочитаем
  47  803D ED 43 15 83  	ld (sys_file_autorun_lenght),bc
  48  8041 21 00 C0     	ld hl,#c000
  49  8044 3A 08 83     	ld a,(sys_file_autorun_id_tmp)
  50  8047 50           	ld d,b ;размер
  51  8048 59           	ld e,c
  52  8049 CD A9 0E     	call Dos.fread
  53  804C 30 0B        	jr nc,sys_file_size_ok2
  54  804E              	;если ошибка
  55  804E CD 67 0E     	call Dos.file_error_print_file_read_error
  56  8051 3A 08 83     	ld a,(sys_file_autorun_id_tmp)
  57  8054 CD 6F 0E     	call Dos.fclose ;закрыть файл
  58  8057 18 4B        	jr sys_loop
  59  8059              sys_file_size_ok2
  60  8059 3A 08 83     	ld a,(sys_file_autorun_id_tmp)
  61  805C CD 6F 0E     	call Dos.fclose ;закрыть файл
  62  805F
  63  805F
  64  805F              	;анализ файла
  65  805F 21 00 C0     	ld hl,#c000
  66  8062 ED 4B 15 83  	ld bc,(sys_file_autorun_lenght) ;цикл
  67  8066              sys_file_autorun_cl
  68  8066 C5           	push bc
  69  8067 7E           	ld a,(hl)
  70  8068 FE 20        	cp " "
  71  806A 38 2C        	jr c,sys_file_autorun_next
  72  806C
  73  806C              	;тут нашли первое имя
  74  806C E5           	push hl
  75  806D 21 18 83     	ld hl,sys_file_autorun_name_tmp ;почистить буфер
  76  8070 11 19 83     	ld de,sys_file_autorun_name_tmp+1
  77  8073 01 FF 00     	ld bc,256-1
  78  8076 36 00        	ld (hl),0
  79  8078 ED B0        	ldir
  80  807A
  81  807A E1           	pop hl
  82  807B 11 18 83     	ld de,sys_file_autorun_name_tmp ;куда
  83  807E 01 00 00     	ld bc,#0000 ;макс длина 255
  84  8081              	;ld ixl,0 ;счётчик
  85  8081              sys_file_autorun_cl2
  86  8081 7E           	ld a,(hl)
  87  8082 FE 20        	cp " "
  88  8084 38 04        	jr c,sys_file_autorun_cl2_ex
  89  8086 ED A0        	ldi
  90  8088 10 F7        	djnz sys_file_autorun_cl2
  91  808A
  92  808A              sys_file_autorun_cl2_ex
  93  808A              	;запустим
  94  808A E5           	push hl
  95  808B 21 18 83     	ld hl,sys_file_autorun_name_tmp		;строка с именем
  96  808E CD DE 02     	call proc_run
  97  8091 DD 7E 00     	ld a,(ix)
  98  8094 32 17 83     	ld (sys_file_autorun_focus),a ;запомнить последний
  99  8097 E1           	pop hl
 100  8098              	;тут надо бы уменьщить счётчик bc на длину имени
 101  8098              sys_file_autorun_next
 102  8098 23           	inc hl
 103  8099 C1           	pop bc
 104  809A 0B           	dec bc
 105  809B 78           	ld a,b
 106  809C B1           	or c
 107  809D 20 C7        	jr nz, sys_file_autorun_cl
 108  809F
 109  809F 3E 01        	ld a,1
 110  80A1              	;ld a,(sys_file_autorun_focus)
 111  80A1 CD 3D 02     	call proc_set_focus ;на передний план
 112  80A4
 113  80A4
 114  80A4              	;jr file_load_ok
 115  80A4              	;call proc_run_cmd ;запустить консоль
 116  80A4              	;call proc_run_cmd ;запустить консоль
 117  80A4              	; call proc_run_cmd ;запустить консоль
 118  80A4              	; call proc_run_cmd ;запустить консоль
 119  80A4              	; call proc_run_cmd ;запустить консоль
 120  80A4              	;call proc_run_cmd ;запустить консоль
 121  80A4              	;call proc_run_cmd ;запустить консоль
 122  80A4
 123  80A4              	; ld hl,proc_name_net		;строка с именем
 124  80A4              	; call proc_run ;запуск
 125  80A4
 126  80A4              	; ld hl,proc_name_01		;строка с именем
 127  80A4              	; call proc_run
 128  80A4
 129  80A4              	; ld hl,proc_name_02		;строка с именем
 130  80A4              	; call proc_run
 131  80A4
 132  80A4              	; ld hl,proc_name_03		;строка с именем
 133  80A4              	; call proc_run
 134  80A4              	; ld a,(ix)
 135  80A4              	; call proc_set_focus ;на передний план
 136  80A4
 137  80A4              sys_loop
 138  80A4              	;OS_WAIT ;для системного процесса не рекомендуется
 139  80A4 76           	halt
 140  80A5 CD 68 82     	call print_active ;индикатор
 141  80A8
 142  80A8              	OS_GET_CHAR
 142  80A8 0E 10       >    ld c,#10
 142  80AA E7          >    rst #20
 143  80AB
 144  80AB              	;печать кода нажатой клавиши
 145  80AB              	;ld a,(key_cur)
 146  80AB FE FF        	cp 255
 147  80AD 28 14        	jr z,sys_loop_skip_print_char
 148  80AF F5           	push af
 149  80B0 6F           	ld l,a
 150  80B1 26 00        	ld h,0
 151  80B3 CD ED 05     	call toDecimal
 152  80B6 11 4C 18     	ld de,#184c ;координаты yx
 153  80B9              	OS_SET_XY
 153  80B9 0E 01       >    ld c,#01
 153  80BB E7          >    rst #20
 154  80BC 21 45 06     	ld hl,decimalS+2
 155  80BF CD 80 0A     	call drvgmx.printZ
 156  80C2 F1           	pop af
 157  80C3              	;-------
 158  80C3              sys_loop_skip_print_char
 159  80C3 FE 16        	cp 22 ;кнопка выхода в монитор
 160  80C5 CA 71 81     	jp z,call_monitor
 161  80C8 FE 13        	cp 19 ;кнопка запуска NC
 162  80CA CA 5F 81     	jp z,run_nc
 163  80CD FE 32        	cp "2" ;кнопки от 2 до 9
 164  80CF 38 0C        	jr c,sys_loop_skip
 165  80D1 FE 39        	cp "9"
 166  80D3 30 08        	jr nc,sys_loop_skip
 167  80D5              	;здесь надо закрыть процесс
 168  80D5 D6 30        	sub "0"
 169  80D7 CD 73 06     	call proc_close_skip
 170  80DA
 171  80DA              sys_loop_skip2
 172  80DA CD 55 81     	call release_key
 173  80DD
 174  80DD
 175  80DD              sys_loop_skip
 176  80DD 3A 10 2C     	ld a,(key_proc_switch_flag) ;если нажали переключение фокуса
 177  80E0 B7           	or a
 178  80E1 28 11        	jr z,sys_loop_skip_key_focus
 179  80E3 CD 2C 02     	call proc_focus_next
 180  80E6 CD 55 81     	call release_key
 181  80E9 AF           	xor a
 182  80EA 32 10 2C     	ld (key_proc_switch_flag),a
 183  80ED 3E FF        	ld a,255
 184  80EF 32 1D 2C     	ld (key_cur),a ;очистить буфер
 185  80F2 18 56        	jr sys_loop_skip_key
 186  80F4
 187  80F4              sys_loop_skip_key_focus
 188  80F4 3A 12 2C     	ld a,(key_caps_lock_switch_flag) ;если нажали caps_lock
 189  80F7 B7           	or a
 190  80F8 28 10        	jr z,sys_loop_skip_key_caps_lock
 191  80FA 2A 15 2C     	ld hl,(FlgScanKeys_addr)
 192  80FD 3E 02        	ld a,%00000010	;?1,=1/0 CapsLock on/off
 193  80FF AE           	xor (hl)
 194  8100 77           	ld (hl),a
 195  8101 CD 55 81     	call release_key
 196  8104 AF           	xor a
 197  8105 32 12 2C     	ld (key_caps_lock_switch_flag),a
 198  8108 18 40        	jr sys_loop_skip_key
 199  810A
 200  810A              sys_loop_skip_key_caps_lock
 201  810A 3A 11 2C     	ld a,(key_lang_flag) ;если нажали rus_lat
 202  810D B7           	or a
 203  810E 28 10        	jr z,sys_loop_skip_key_rus_lat
 204  8110 2A 15 2C     	ld hl,(FlgScanKeys_addr)
 205  8113 3E 08        	ld a,%00001000	;3,=1/0 Rus/Lat
 206  8115 AE           	xor (hl) ;флаг FlgScanKeys
 207  8116 77           	ld (hl),a
 208  8117 CD 55 81     	call release_key
 209  811A AF           	xor a
 210  811B 32 11 2C     	ld (key_lang_flag),a
 211  811E 18 2A        	jr sys_loop_skip_key
 212  8120
 213  8120              sys_loop_skip_key_rus_lat
 214  8120 3A 13 2C     	ld a,(key_graph_flag) ;если нажали graph
 215  8123 B7           	or a
 216  8124 28 10        	jr z,sys_loop_skip_key_graph
 217  8126 2A 15 2C     	ld hl,(FlgScanKeys_addr)
 218  8129 3E 04        	ld a,%00000100	;2,=1/0 Grf on/off
 219  812B AE           	xor (hl)
 220  812C 77           	ld (hl),a
 221  812D CD 55 81     	call release_key
 222  8130 AF           	xor a
 223  8131 32 13 2C     	ld (key_graph_flag),a
 224  8134 18 14        	jr sys_loop_skip_key
 225  8136
 226  8136              sys_loop_skip_key_graph
 227  8136 3A 14 2C     	ld a,(key_sys_focus) ;если нажали EXT+1
 228  8139 B7           	or a
 229  813A 28 0E        	jr z,sys_loop_skip_key_sys_focus
 230  813C              	;фокус на системный процесс
 231  813C 3E 01        	ld a,1
 232  813E CD 3D 02     	call proc_set_focus
 233  8141 CD 55 81     	call release_key
 234  8144 AF           	xor a
 235  8145 32 14 2C     	ld (key_sys_focus),a
 236  8148 18 00        	jr sys_loop_skip_key
 237  814A
 238  814A
 239  814A              sys_loop_skip_key_sys_focus
 240  814A
 241  814A              sys_loop_skip_key
 242  814A
 243  814A
 244  814A 3A 25 2C     	ld a,(sys_timer) ;иногда печатаем системную информацию
 245  814D E6 0F        	and %00001111
 246  814F CC 8C 81     	call z,sys_print_info
 247  8152              	; OS_GETCHAR ;получить нажатую клавишу
 248  8152              	; cp 255
 249  8152              	; jr z,sys_loop
 250  8152              	; OS_PRINT_CHARF ;печать символа
 251  8152
 252  8152
 253  8152
 254  8152 C3 A4 80     	jp sys_loop
 255  8155
 256  8155
 257  8155
 258  8155
 259  8155              release_key ;ждать отпускания клавиши
 260  8155              	;OS_WAIT ;для системного процесса не рекомендуется
 261  8155 76           	halt
 262  8156              	;ld hl,(FlgScanKeys_addr)
 263  8156              	;ждать пока отпустят все клавиши
 264  8156 AF           WAITKEY	XOR A
 264  8157 DB FE         IN A,(#FE)
 264  8159 2F            CPL
 264  815A E6 1F         AND #1F
 264  815C 20 F8         JR nz,WAITKEY
 265  815E              	;bit 6,(hl)
 266  815E              	;jr z,release_key
 267  815E C9           	ret
 268  815F
 269  815F              run_nc
 270  815F 21 8A 82     	ld hl,proc_name_nc		;строка с именем
 271  8162 CD DE 02     	call proc_run
 272  8165 DA DA 80     	jp c,sys_loop_skip2
 273  8168 DD 7E 00     	ld a,(ix)
 274  816B CD 3D 02     	call proc_set_focus ;на передний план
 275  816E C3 DA 80     	jp sys_loop_skip2
 276  8171
 277  8171              call_monitor	;вызов теневого монитора
 278  8171 F3           	di
 279  8172 ED 73 8A 81  	ld (call_monitor_tmp_sp),sp
 280  8176 31 00 60     	ld sp,#6000 ;временный стек
 281  8179 CD 66 00     	call #66
 282  817C ED 7B 8A 81  	ld sp,(call_monitor_tmp_sp)
 283  8180
 284  8180 3A 23 10     	ld a,(Dos.fs_fat_part_code_cur)
 285  8183 CD 17 0E     	call Dos.init_fs_fat_warm ;переинициализация FAT
 286  8186 FB           	ei
 287  8187 C3 DA 80     	jp sys_loop_skip2
 288  818A
 289  818A 00 00        call_monitor_tmp_sp dw 0 ;временно
 290  818C
 291  818C              ;печать информации
 292  818C              sys_print_info
 293  818C              	;инфо об открытых файлах
 294  818C              sys_print_info_files
 295  818C 21 12 12     	ld hl,Dos.fcb_fat_table
 296  818F 06 08        	ld b,Dos.files_fat_max
 297  8191 0E 00        	ld c,0 ;счётчик
 298  8193              sys_print_info_files_cl
 299  8193 7E           	ld a,(hl)
 300  8194 B7           	or a
 301  8195 28 01        	jr z,sys_print_info_files_skip
 302  8197 0C           	inc c
 303  8198              sys_print_info_files_skip
 304  8198 23           	inc hl
 305  8199 10 F8        	djnz sys_print_info_files_cl
 306  819B
 307  819B 69           	ld l,c
 308  819C 26 00        	ld h,0
 309  819E CD ED 05     	call toDecimal
 310  81A1 11 00 0B     	ld de,#0b00 ;координаты yx
 311  81A4              	OS_SET_XY
 311  81A4 0E 01       >    ld c,#01
 311  81A6 E7          >    rst #20
 312  81A7 21 91 82     	ld hl,msg_files
 313  81AA CD 80 0A     	call drvgmx.printZ
 314  81AD 21 46 06     	ld hl,decimalS+3
 315  81B0 CD 80 0A     	call drvgmx.printZ
 316  81B3
 317  81B3              	;печать информации о памяти и процессах
 318  81B3 CD EA 81     	call get_proc_total ;печать и подсчёт процессов
 319  81B6 6F           	ld l,a
 320  81B7 26 00        	ld h,0
 321  81B9 CD ED 05     	call toDecimal
 322  81BC 11 00 0D     	ld de,#0d00 ;координаты yx
 323  81BF              	OS_SET_XY
 323  81BF 0E 01       >    ld c,#01
 323  81C1 E7          >    rst #20
 324  81C2 21 99 82     	ld hl,msg_processes
 325  81C5 CD 80 0A     	call drvgmx.printZ
 326  81C8 21 46 06     	ld hl,decimalS+3
 327  81CB CD 80 0A     	call drvgmx.printZ
 328  81CE
 329  81CE 11 00 0C     	ld de,#0c00 ;координаты yx
 330  81D1              	OS_SET_XY
 330  81D1 0E 01       >    ld c,#01
 330  81D3 E7          >    rst #20
 331  81D4 21 A5 82     	ld hl,msg_free_ram
 332  81D7 CD 80 0A     	call drvgmx.printZ
 333  81DA CD 57 82     	call get_free_ram ;памяти
 334  81DD 6F           	ld l,a
 335  81DE 26 00        	ld h,0
 336  81E0 CD ED 05     	call toDecimal
 337  81E3 21 45 06     	ld hl,decimalS+2
 338  81E6 CD 80 0A     	call drvgmx.printZ
 339  81E9 C9           	ret
 340  81EA
 341  81EA
 342  81EA
 343  81EA
 344  81EA              get_proc_total
 345  81EA              	;поиск и печать количества запущеных процессов
 346  81EA              	;вых: a - количество активных
 347  81EA 11 00 0E     	ld de,#0e00 ;координаты yx
 348  81ED              	OS_SET_XY
 348  81ED 0E 01       >    ld c,#01
 348  81EF E7          >    rst #20
 349  81F0 DD 21 00 2D  	ld ix,proc_table
 350  81F4 06 08        	ld b,proc_max ;цикл по максимальному количеству процессов
 351  81F6 0E 00        	ld c,0 ;счётчик
 352  81F8              get_proc_total_cl
 353  81F8 DD 7E 00     	ld a,(ix)
 354  81FB B7           	or a ;свободен?
 355  81FC 28 1F        	jr z,get_proc_total_cl1
 356  81FE
 357  81FE C5           	push bc
 358  81FF C6 30        	add '0' ;печать id
 359  8201              	OS_PRINT_CHARF
 359  8201 D7          >	rst #10
 360  8202 3E 20        	ld a," "
 361  8204              	OS_PRINT_CHARF
 361  8204 D7          >	rst #10
 362  8205 DD 7E 01     	ld a,(ix+1)
 363  8208 C6 30        	add '0' ;печать id родительского
 364  820A              	OS_PRINT_CHARF
 364  820A D7          >	rst #10
 365  820B 3E 20        	ld a," "
 366  820D              	OS_PRINT_CHARF
 366  820D D7          >	rst #10
 367  820E
 368  820E DD E5        	push ix
 369  8210 E1           	pop hl
 370  8211 01 10 00     	ld bc,16
 371  8214 09           	add hl,bc
 372  8215              	OS_PRINTZ ;печать имени
 372  8215 0E 09       >    ld c,#09
 372  8217 E7          >    rst #20
 373  8218
 374  8218 3E 0D        	ld a,13
 375  821A              	OS_PRINT_CHARF
 375  821A D7          >	rst #10
 376  821B
 377  821B C1           	pop bc
 378  821C
 379  821C 0C           	inc c ;прибавить
 380  821D              get_proc_total_cl1
 381  821D DD 24        	inc ixh
 382  821F 10 D7        	djnz get_proc_total_cl
 383  8221 79           	ld a,c
 384  8222 32 45 82     	ld (get_proc_total_count),a
 385  8225
 386  8225              	;почистить пустые строки (надо оптимизировать по времени)
 387  8225 3E 08        	ld a,proc_max
 388  8227 91           	sub c ;сколько пустых стрк должно быть
 389  8228 28 17        	jr z,get_proc_total_ex
 390  822A 47           	ld b,a ;цикл
 391  822B 11 00 0E     	ld de,#0e00 ;координаты yx
 392  822E 79           	ld a,c
 393  822F 82           	add d
 394  8230 57           	ld d,a
 395  8231              get_proc_total_cl2
 396  8231 D5           	push de
 397  8232 C5           	push bc
 398  8233              	OS_SET_XY
 398  8233 0E 01       >    ld c,#01
 398  8235 E7          >    rst #20
 399  8236 21 46 82     	ld hl,get_proc_total_clear
 400  8239              	OS_PRINTZ ;очистить
 400  8239 0E 09       >    ld c,#09
 400  823B E7          >    rst #20
 401  823C C1           	pop bc
 402  823D D1           	pop de
 403  823E 14           	inc d
 404  823F 10 F0        	djnz get_proc_total_cl2
 405  8241
 406  8241              get_proc_total_ex
 407  8241 3A 45 82     	ld a,(get_proc_total_count)
 408  8244 C9           	ret
 409  8245 00           get_proc_total_count db 0 ;временно
 410  8246 20 20 20 20  get_proc_total_clear db "                ",0
 410  824A 20 20 20 20
 410  824E 20 20 20 20
 410  8252 20 20 20 20
 410  8256 00
 411  8257
 412  8257
 413  8257              get_free_ram
 414  8257              	;поиск количества свободных страниц памяти
 415  8257              	;вых: a - количество свободных
 416  8257 21 00 35     	ld hl,proc_page_table ;таблица памяти приложений с кодами процессов
 417  825A 06 6D        	ld b,page_max ;всего страниц
 418  825C 0E 00        	ld c,0 ;счётчик
 419  825E              get_free_ram_cl
 420  825E 7E           	ld a,(hl)
 421  825F B7           	or a ;свободен?
 422  8260 20 01        	jr nz,get_free_ram_cl1
 423  8262 0C           	inc c ;прибавить
 424  8263              get_free_ram_cl1
 425  8263 23           	inc hl
 426  8264 10 F8        	djnz get_free_ram_cl
 427  8266 79           	ld a,c
 428  8267 C9           	ret
 429  8268
 430  8268
 431  8268
 432  8268              print_active ;значёк активности
 433  8268 11 00 0A     	ld de,#0a00 ;координаты yx
 434  826B              	OS_SET_XY
 434  826B 0E 01       >    ld c,#01
 434  826D E7          >    rst #20
 435  826E 21 FA 82     	ld hl,msg_active
 436  8271              	OS_PRINTZ
 436  8271 0E 09       >    ld c,#09
 436  8273 E7          >    rst #20
 437  8274 3A 07 83     	ld a,(msg_active_cur)
 438  8277 3C           	inc a
 439  8278 FE 04        	cp 4
 440  827A 38 01        	jr c,print_active1
 441  827C AF           	xor a
 442  827D              print_active1
 443  827D 32 07 83     	ld (msg_active_cur),a
 444  8280 4F           	ld c,a
 445  8281 06 00        	ld b,0
 446  8283 21 02 83     	ld hl,msg_active1
 447  8286 09           	add hl,bc
 448  8287 7E           	ld a,(hl)
 449  8288              	OS_PRINT_CHARF
 449  8288 D7          >	rst #10
 450  8289 C9           	ret
 451  828A
 452  828A
 453  828A
 454  828A
 455  828A
 456  828A
 457  828A 6E 63 2E 61  proc_name_nc db "nc.apg",0
 457  828E 70 67 00
 458  8291
 459  8291              msg_files
 460  8291 46 69 6C 65  	db "Files: ",0
 460  8295 73 3A 20 00
 461  8299              msg_processes
 462  8299 50 72 6F 63  	db "Processes: ",0
 462  829D 65 73 73 65
 462  82A1 73 3A 20 00
 463  82A5              msg_free_ram
 464  82A5 46 72 65 65  	db "Free pages RAM: ",0
 464  82A9 20 70 61 67
 464  82AD 65 73 20 52
 464  82B1 41 4D 3A 20
 464  82B5 00
 465  82B6              msg_press_num_to_close
 466  82B6 53 53 2B 45  	db "SS+Enter - switch. 2-8 - close process. Ext+0 - Monitor. Ext+9 - NC",0
 466  82BA 6E 74 65 72
 466  82BE 20 2D 20 73
 466  82C2 77 69 74 63
 466  82C6 68 2E 20 32
 466  82CA 2D 38 20 2D
 466  82CE 20 63 6C 6F
 466  82D2 73 65 20 70
 466  82D6 72 6F 63 65
 466  82DA 73 73 2E 20
 466  82DE 45 78 74 2B
 466  82E2 30 20 2D 20
 466  82E6 4D 6F 6E 69
 466  82EA 74 6F 72 2E
 466  82EE 20 45 78 74
 466  82F2 2B 39 20 2D
 466  82F6 20 4E 43 00
 467  82FA 41 63 74 69  msg_active db "Active ",0
 467  82FE 76 65 20 00
 468  8302 7C 2F 2D 5C  msg_active1 db "|/-\\",0
 468  8306 00
 469  8307 00           msg_active_cur db 0 ;текущий значёк активности
 470  8308
 471  8308 00           sys_file_autorun_id_tmp db 0 ;временно
 472  8309 61 75 74 6F  sys_file_autorun_name	db "autorun.txt",0
 472  830D 72 75 6E 2E
 472  8311 74 78 74 00
 473  8315 00 00        sys_file_autorun_lenght dw 0 ;временно
 474  8317 00           sys_file_autorun_focus db 0 ;временно
 475  8318 00 00 00...  sys_file_autorun_name_tmp ds 256
 476  8418
 477  8418
 478  8418              end_sys
 479  8418              	savebin "sys.osg",start_sys,$-start_sys
 480  8418              ;------------------------------------------------------------------------
 481  8418
 482  8418
 483  8418
 484  8418
 485  8418
 486  8418
 487  8418
 488  8418
 489  8418
 490  8418
 491  8418
 492  8418
 493  8418
 494  8418
 495  8418
 496  8418
 497  8418
 498  8418
 499  8418
 500  8418
 501  8418
 502  8418
 503  8418
 504  8418
 505  8418
 506  8418              ;sys - сетевой процесс для OS
 507  8418              	org PROG_START
 508  8000              start_net
 509  8000
 510  8000 21 1B 85     	ld hl,msg_ver_net
 511  8003              	;печать приветствия
 512  8003 CD 80 0A     	call drvgmx.printZ
 513  8006
 514  8006              ;uart #EF (wifi)
 515  8006 AF           	xor a
 516  8007 32 02 2C     	ld (uart_enable),a ;флаг порт отсутствует
 517  800A              	; ld a,1
 518  800A              	; ld (esp_link_id_table),a ;временно занять порт
 519  800A CD CA 81     	call Uart.check
 520  800D FE FF        	cp 255
 521  800F              	;jr z,init_uart_no ;отключить проверку можно тут
 522  800F              	;нашли uart
 523  800F 3E 01        	ld a,1
 524  8011 32 02 2C     	ld (uart_enable),a ;порт есть
 525  8014 21 C8 35     	ld hl,msg_init_uart_found
 526  8017 CD 80 0A     	call drvgmx.printZ
 527  801A CD 3B 82     	call Wifi.init
 528  801D 18 06        	jr init_uart_yes
 529  801F              init_uart_no
 530  801F              	;печать
 531  801F 21 D9 35     	ld hl,msg_init_uart_not_found
 532  8022 CD 80 0A     	call drvgmx.printZ
 533  8025              init_uart_yes
 534  8025
 535  8025
 536  8025              net_loop
 537  8025              	OS_WAIT
 537  8025 DF          >	rst #18
 538  8026 CD 9A 81     	call print_active_net ;индикатор
 539  8029 CD 3C 80     	call esp_check_open ;проверить соединения
 540  802C CD A2 80     	call esp_check_send ;проверить пакеты на отправку
 541  802F CD C5 80     	call esp_check_get ;проверить пакеты на приём
 542  8032 3A 25 2C     	ld a,(sys_timer) ;иногда печатаем сетевую информацию
 543  8035 E6 0E        	and %00001110
 544  8037 CC 1C 81     	call z,print_esp_link
 545  803A
 546  803A 18 E9        	jr net_loop
 547  803C
 548  803C
 549  803C              esp_check_open ;проверка очереди соединений ESP
 550  803C DD 21 80 35  	ld ix,esp_link_id_table ;
 551  8040              	;push bc
 552  8040 DD 7E 01     	ld a,(ix+1)
 553  8043 B7           	or a ;запрос есть?
 554  8044 C8           	ret z
 555  8045              	;есть запрос
 556  8045
 557  8045 DD 7E 0E     	ld a,(ix+14) ;подставить тип соединения
 558  8048 B7           	or a
 559  8049 20 11        	jr nz,esp_check_open_type1
 560  804B 3E 54        	ld a,'T'
 561  804D 32 B9 84     	ld (Wifi.cmd_CIPSTART2+0),a
 562  8050 3E 43        	ld a,'C'
 563  8052 32 BA 84     	ld (Wifi.cmd_CIPSTART2+1),a
 564  8055 3E 50        	ld a,'P'
 565  8057 32 BB 84     	ld (Wifi.cmd_CIPSTART2+2),a
 566  805A 18 2A        	jr esp_check_open_type_skip
 567  805C              esp_check_open_type1
 568  805C FE 01        	cp 1
 569  805E 20 11        	jr nz,esp_check_open_type2
 570  8060 3E 55        	ld a,'U'
 571  8062 32 B9 84     	ld (Wifi.cmd_CIPSTART2+0),a
 572  8065 3E 44        	ld a,'D'
 573  8067 32 BA 84     	ld (Wifi.cmd_CIPSTART2+1),a
 574  806A 3E 50        	ld a,'P'
 575  806C 32 BB 84     	ld (Wifi.cmd_CIPSTART2+2),a
 576  806F 18 15        	jr esp_check_open_type_skip
 577  8071              esp_check_open_type2
 578  8071 FE 02        	cp 2
 579  8073 20 11        	jr nz,esp_check_open_type_skip
 580  8075 3E 53        	ld a,'S'
 581  8077 32 B9 84     	ld (Wifi.cmd_CIPSTART2+0),a
 582  807A 3E 53        	ld a,'S'
 583  807C 32 BA 84     	ld (Wifi.cmd_CIPSTART2+1),a
 584  807F 3E 4C        	ld a,'L'
 585  8081 32 BB 84     	ld (Wifi.cmd_CIPSTART2+2),a
 586  8084 18 00        	jr esp_check_open_type_skip
 587  8086
 588  8086              esp_check_open_type_skip
 589  8086 11 BB 35     	ld de,esp_link_id_table+59 ;номер порта
 590  8089 21 8F 35     	ld hl,esp_link_id_table+15 ;;адрес сервера
 591  808C CD DD 82     	call Wifi.openTCP
 592  808F 30 04        	jr nc,esp_check_open_res
 593  8091 3E FF        	ld a,255 ;ошибка
 594  8093 18 05        	jr esp_check_open_err
 595  8095              esp_check_open_res
 596  8095              	;результат запишем
 597  8095 3A 3A 82     	ld a,(Wifi.closed)
 598  8098 EE 01        	xor 1
 599  809A              esp_check_open_err
 600  809A DD 77 02     	ld (ix+2),a ;поставить флаг результата открытия
 601  809D DD 36 01 00  	ld (ix+1),0 ;сбросить флаг запроса
 602  80A1 C9           	ret
 603  80A2
 604  80A2
 605  80A2
 606  80A2
 607  80A2
 608  80A2              esp_check_send ;проверить пакеты на отправку
 609  80A2 DD 21 80 35  	ld ix,esp_link_id_table ;
 610  80A6 DD 7E 03     	ld a,(ix+3)
 611  80A9 B7           	or a ;запрос есть?
 612  80AA C8           	ret z
 613  80AB              	;есть запрос
 614  80AB DD 5E 09     	ld e,(ix+9) ;длина данных
 615  80AE DD 56 0A     	ld d,(ix+10)
 616  80B1 21 2D 36     	ld hl,esp_buffer ;адрес
 617  80B4 CD 9E 83     	call Wifi.tcpSend
 618  80B7 3E 01        	ld a,1 ;успех
 619  80B9 30 02        	jr nc,esp_check_send_res
 620  80BB 3E FF        	ld a,255 ;ошибка
 621  80BD              esp_check_send_res
 622  80BD DD 77 04     	ld (ix+4),a ;поставить флаг результата отправки
 623  80C0 DD 36 03 00  	ld (ix+3),0 ;сбросить флаг запроса
 624  80C4 C9           	ret
 625  80C5
 626  80C5
 627  80C5
 628  80C5
 629  80C5
 630  80C5              esp_check_get ;проверить пакеты на приём
 631  80C5 DD 21 80 35  	ld ix,esp_link_id_table ;
 632  80C9 DD 7E 05     	ld a,(ix+5)
 633  80CC B7           	or a ;запрос есть?
 634  80CD C8           	ret z
 635  80CE              	;есть запрос
 636  80CE 21 00 00     	ld hl,0
 637  80D1 22 36 82     	ld (Wifi.bytes_avail), hl ;длину сбросим
 638  80D4 21 2D 36     	ld hl,esp_buffer ;адрес
 639  80D7 22 38 82     	ld (Wifi.buffer_pointer),hl ;
 640  80DA CD E0 83     	call Wifi.getPacket
 641  80DD 30 0A        	jr nc,esp_check_get_res
 642  80DF 3E FF        	ld a,255 ;ошибка
 643  80E1 DD 77 06     	ld (ix+6),a ;поставить флаг результата приёма
 644  80E4 DD 36 05 00  	ld (ix+5),0 ;сбросить флаг запроса
 645  80E8 C9           	ret
 646  80E9              esp_check_get_res
 647  80E9              	;если что-то принято
 648  80E9 ED 4B 36 82  	ld bc,(Wifi.bytes_avail) ;длина
 649  80ED DD 71 09     	ld (ix+9),c ;длина принятых
 650  80F0 DD 70 0A     	ld (ix+10),b
 651  80F3
 652  80F3 78           	ld a,b
 653  80F4 B1           	or c
 654  80F5 28 0F        	jr z,esp_check_get_skip_copy2 ;защита от нулевой длины
 655  80F7
 656  80F7 DD 5E 07     	ld e,(ix+7) ;адрес назначения
 657  80FA DD 56 08     	ld d,(ix+8)
 658  80FD DD 7E 00     	ld a,(ix) ;id назначения
 659  8100 21 2D 36     	ld hl,esp_buffer ;откуда
 660  8103 CD C4 05     	call esp_buffer_copy ;перекинем данные силами ядра
 661  8106
 662  8106              esp_check_get_skip_copy2
 663  8106 DD 21 80 35  	ld ix,esp_link_id_table ;
 664  810A 3A 3A 82     	ld a,(Wifi.closed)
 665  810D EE 01        	xor 1
 666  810F DD 77 02     	ld (ix+2),a ;поставить текущий флаг открытия
 667  8112 3E 01        	ld a,1 ;успех
 668  8114 DD 77 06     	ld (ix+6),a ;поставить флаг результата приёма
 669  8117 DD 36 05 00  	ld (ix+5),0 ;сбросить флаг запроса
 670  811B C9           	ret
 671  811C
 672  811C
 673  811C              print_esp_link
 674  811C 26 0B        	ld h,#0b
 675  811E 3E 20        	ld a," "
 676  8120              	OS_FILL_LINE ;почистить строку
 676  8120 0E 03       >    ld c,#03
 676  8122 E7          >    rst #20
 677  8123 DD 21 80 35  	ld ix,esp_link_id_table
 678  8127
 679  8127 11 00 0B     	ld de,#0b00 ;координаты yx
 680  812A              	OS_SET_XY
 680  812A 0E 01       >    ld c,#01
 680  812C E7          >    rst #20
 681  812D 21 00 85     	ld hl,msg_esp_link
 682  8130              	OS_PRINTZ
 682  8130 0E 09       >    ld c,#09
 682  8132 E7          >    rst #20
 683  8133 DD 7E 00     	ld a,(ix)
 684  8136 C6 30        	add '0'
 685  8138              	OS_PRINT_CHARF ;id
 685  8138 D7          >	rst #10
 686  8139 3E 20        	ld a," "
 687  813B              	OS_PRINT_CHARF
 687  813B D7          >	rst #10
 688  813C
 689  813C DD 7E 00     	ld a,(ix)
 690  813F B7           	or a
 691  8140 C8           	ret z ;если нет соединений
 692  8141
 693  8141 21 09 85     	ld hl,msg_esp_transmit
 694  8144              	OS_PRINTZ
 694  8144 0E 09       >    ld c,#09
 694  8146 E7          >    rst #20
 695  8147 DD 7E 04     	ld a,(ix+4)
 696  814A B7           	or a
 697  814B 28 1C        	jr z,print_esp_link2
 698  814D DD 7E 05     	ld a,(ix+5) ;при этом не начался приём
 699  8150 4F           	ld c,a
 700  8151 DD 7E 06     	ld a,(ix+6)
 701  8154 B1           	or c
 702  8155 20 12        	jr nz,print_esp_link2
 703  8157 DD 6E 09     	ld l,(ix+9)
 704  815A DD 66 0A     	ld h,(ix+10)
 705  815D CD ED 05     	call toDecimal
 706  8160 21 43 06     	ld hl,decimalS
 707  8163              	OS_PRINTZ	;отправлено
 707  8163 0E 09       >    ld c,#09
 707  8165 E7          >    rst #20
 708  8166 3E 20        	ld a," "
 709  8168              	OS_PRINT_CHARF
 709  8168 D7          >	rst #10
 710  8169              print_esp_link2
 711  8169
 712  8169 21 0F 85     	ld hl,msg_esp_receive
 713  816C              	OS_PRINTZ
 713  816C 0E 09       >    ld c,#09
 713  816E E7          >    rst #20
 714  816F DD 7E 06     	ld a,(ix+6)
 715  8172 B7           	or a
 716  8173 28 12        	jr z,print_esp_link3
 717  8175 DD 6E 09     	ld l,(ix+9)
 718  8178 DD 66 0A     	ld h,(ix+10)
 719  817B CD ED 05     	call toDecimal
 720  817E 21 43 06     	ld hl,decimalS
 721  8181              	OS_PRINTZ	;принято
 721  8181 0E 09       >    ld c,#09
 721  8183 E7          >    rst #20
 722  8184 3E 20        	ld a," "
 723  8186              	OS_PRINT_CHARF
 723  8186 D7          >	rst #10
 724  8187              print_esp_link3
 725  8187
 726  8187 21 15 85     	ld hl,msg_esp_address
 727  818A              	OS_PRINTZ
 727  818A 0E 09       >    ld c,#09
 727  818C E7          >    rst #20
 728  818D DD 7E 02     	ld a,(ix+2) ;соединение установлено
 729  8190 B7           	or a
 730  8191 28 06        	jr z,print_esp_link4
 731  8193 21 8F 35     	ld hl,esp_link_id_table+15 ;сервер
 732  8196              	OS_PRINTZ
 732  8196 0E 09       >    ld c,#09
 732  8198 E7          >    rst #20
 733  8199              print_esp_link4
 734  8199 C9           	ret
 735  819A
 736  819A
 737  819A
 738  819A
 739  819A              print_active_net ;значёк активности
 740  819A 11 00 0A     	ld de,#0a00 ;координаты yx
 741  819D              	OS_SET_XY
 741  819D 0E 01       >    ld c,#01
 741  819F E7          >    rst #20
 742  81A0 21 BC 81     	ld hl,msg_active_net
 743  81A3              	OS_PRINTZ
 743  81A3 0E 09       >    ld c,#09
 743  81A5 E7          >    rst #20
 744  81A6 3A C9 81     	ld a,(msg_active_net_cur)
 745  81A9 3C           	inc a
 746  81AA FE 04        	cp 4
 747  81AC 38 01        	jr c,print_active_net1
 748  81AE AF           	xor a
 749  81AF              print_active_net1
 750  81AF 32 C9 81     	ld (msg_active_net_cur),a
 751  81B2 4F           	ld c,a
 752  81B3 06 00        	ld b,0
 753  81B5 21 C4 81     	ld hl,msg_active_net1
 754  81B8 09           	add hl,bc
 755  81B9 7E           	ld a,(hl)
 756  81BA              	OS_PRINT_CHARF
 756  81BA D7          >	rst #10
 757  81BB C9           	ret
 758  81BC
 759  81BC
 760  81BC
 761  81BC
 762  81BC
 763  81BC
 764  81BC 41 63 74 69  msg_active_net db "Active ",0
 764  81C0 76 65 20 00
 765  81C4 7C 2F 2D 5C  msg_active_net1 db "|/-\\",0
 765  81C8 00
 766  81C9 00           msg_active_net_cur db 0 ;текущий значёк активности
 767  81CA
 768  81CA              	include Drv/zx-wifi.asm ;драйвер сетевой карты ESP
# file opened: Drv/zx-wifi.asm
   1+ 81CA              ; This driver works with 16c550 uart that's support AFE
   2+ 81CA                  module Uart
   3+ 81CA              ; Make init shorter and readable:-)
   4+ 81CA                  macro outp port, value
   5+ 81CA ~            	ld b, port
   6+ 81CA ~            	ld c, #EF
   7+ 81CA ~                ld a, value
   8+ 81CA ~                out (c), a
   9+ 81CA                  endm
  10+ 81CA
  11+ 81CA              ; Internal port constants
  12+ 81CA              RBR_THR = #F8
  13+ 81CA              IER     = RBR_THR + 1
  14+ 81CA              IIR_FCR = RBR_THR + 2
  15+ 81CA              LCR     = RBR_THR + 3
  16+ 81CA              MCR     = RBR_THR + 4
  17+ 81CA              LSR     = RBR_THR + 5
  18+ 81CA              MSR     = RBR_THR + 6
  19+ 81CA              SR      = RBR_THR + 7
  20+ 81CA
  21+ 81CA
  22+ 81CA              ;out: a=255 - no UART
  23+ 81CA              check: ;проверка есть ли карта
  24+ 81CA 3E F8        	ld a, RBR_THR
  25+ 81CC DB FE            in a, (#fe)
  26+ 81CE FE FF        	cp #ff
  27+ 81D0 C0           	ret nz ;если читает 255, то нет карты
  28+ 81D1 3E F8        	ld a, RBR_THR
  29+ 81D3 DB FE            in a, (#fe) ;второй раз для надёжности
  30+ 81D5 FE FF        	cp #ff
  31+ 81D7 C9           	ret
  32+ 81D8
  33+ 81D8
  34+ 81D8              init:
  35+ 81D8                  outp MCR,     #0d  // Assert RTS
  35+ 81D8 06 FC       >	ld b, MCR
  35+ 81DA 0E EF       >	ld c, #EF
  35+ 81DC 3E 0D       >    ld a, #0d
  35+ 81DE ED 79       >    out (c), a
  36+ 81E0                  outp IIR_FCR, #87  // Enable fifo 8 level, and clear it
  36+ 81E0 06 FA       >	ld b, IIR_FCR
  36+ 81E2 0E EF       >	ld c, #EF
  36+ 81E4 3E 87       >    ld a, #87
  36+ 81E6 ED 79       >    out (c), a
  37+ 81E8                  outp LCR,     #83  // 8n1, DLAB=1
  37+ 81E8 06 FB       >	ld b, LCR
  37+ 81EA 0E EF       >	ld c, #EF
  37+ 81EC 3E 83       >    ld a, #83
  37+ 81EE ED 79       >    out (c), a
  38+ 81F0                  outp RBR_THR, #01  // 115200 (divider 1)
  38+ 81F0 06 F8       >	ld b, RBR_THR
  38+ 81F2 0E EF       >	ld c, #EF
  38+ 81F4 3E 01       >    ld a, #01
  38+ 81F6 ED 79       >    out (c), a
  39+ 81F8                  outp IER,     #00  // (divider 0). Divider is 16 bit, so we get (#0002 divider)
  39+ 81F8 06 F9       >	ld b, IER
  39+ 81FA 0E EF       >	ld c, #EF
  39+ 81FC 3E 00       >    ld a, #00
  39+ 81FE ED 79       >    out (c), a
  40+ 8200
  41+ 8200                  outp LCR,     #03 // 8n1, DLAB=0
  41+ 8200 06 FB       >	ld b, LCR
  41+ 8202 0E EF       >	ld c, #EF
  41+ 8204 3E 03       >    ld a, #03
  41+ 8206 ED 79       >    out (c), a
  42+ 8208                  outp IER,     #00 // Disable int
  42+ 8208 06 F9       >	ld b, IER
  42+ 820A 0E EF       >	ld c, #EF
  42+ 820C 3E 00       >    ld a, #00
  42+ 820E ED 79       >    out (c), a
  43+ 8210                  outp MCR,     #2f // Enable AFE
  43+ 8210 06 FC       >	ld b, MCR
  43+ 8212 0E EF       >	ld c, #EF
  43+ 8214 3E 2F       >    ld a, #2f
  43+ 8216 ED 79       >    out (c), a
  44+ 8218 C9               ret
  45+ 8219
  46+ 8219              ;retry_rec_count_max equ %00011111 ;ждать столько прерываний
  47+ 8219
  48+ 8219              ; Flag C <- Data available
  49+ 8219              ; isAvailable:
  50+ 8219                  ; ld a, LSR
  51+ 8219                  ; in a, (#EF)
  52+ 8219                  ; rrca
  53+ 8219                  ; ret
  54+ 8219
  55+ 8219              ; Non-blocking read
  56+ 8219              ; Flag C <- is byte was readen
  57+ 8219              ; A <- byte
  58+ 8219              ; read1:
  59+ 8219                  ; ld a, LSR
  60+ 8219                  ; in a, (#EF)
  61+ 8219                  ; rrca
  62+ 8219                  ; ret nc
  63+ 8219                  ; ld a, RBR_THR
  64+ 8219                  ; in a, (#EF)
  65+ 8219                  ; scf
  66+ 8219                  ; ret
  67+ 8219
  68+ 8219              ; Tries read byte with timeout
  69+ 8219              ; Flag C <- is byte read
  70+ 8219              ; A <- byte
  71+ 8219              read:
  72+ 8219              	;xor a ;4
  73+ 8219              	;ld (#5C78),a ;обнулить счётчик ожидания ;13
  74+ 8219              .wait
  75+ 8219 3E FD            ld a, LSR
  76+ 821B DB EF            in a, (#EF)
  77+ 821D 0F               rrca
  78+ 821E 30 F9        	jr nc, .wait
  79+ 8220 3E F8            ld a, RBR_THR
  80+ 8222 DB EF            in a, (#EF)
  81+ 8224 C9           	ret
  82+ 8225              ; .readW
  83+ 8225              	; OS_GETTIMER
  84+ 8225              	; ld a,e
  85+ 8225              	; and retry_rec_count_max
  86+ 8225              	; ;ld a,(#5C78)
  87+ 8225              	; ;cp retry_rec_count_max
  88+ 8225              	; jr nz, .wait ;ещё попытка
  89+ 8225              	; xor a ;выключим флаг переноса если время вышло
  90+ 8225              	; ret
  91+ 8225
  92+ 8225
  93+ 8225
  94+ 8225
  95+ 8225              ; Blocking read
  96+ 8225              ; A <- Byte
  97+ 8225              ; readB:
  98+ 8225                  ; ld a, LSR
  99+ 8225                  ; in a, (#EF)
 100+ 8225                  ; rrca
 101+ 8225                  ; jr nc, readB
 102+ 8225              	; ld a, RBR_THR
 103+ 8225                  ; in a, (#EF)
 104+ 8225                  ; ret
 105+ 8225
 106+ 8225              ; A -> byte to send
 107+ 8225              write:
 108+ 8225 F5               push af
 109+ 8226              .wait
 110+ 8226 3E FD        	ld a, LSR
 111+ 8228 DB EF            in a, (#EF)
 112+ 822A E6 20            and #20
 113+ 822C 28 F8            jr z, .wait
 114+ 822E F1               pop af
 115+ 822F 06 F8        	ld b, RBR_THR
 116+ 8231 0E EF        	ld c, #EF
 117+ 8233 ED 79            out (c), a
 118+ 8235 C9               ret
 119+ 8236
 120+ 8236                  endmodule
# file closed: Drv/zx-wifi.asm
 769  8236              	include Drv/wifi.asm ;работа с ESP
# file opened: Drv/wifi.asm
   1+ 8236                  MODULE Wifi
   2+ 8236 00 00        bytes_avail dw 0 ;байт для приёма
   3+ 8238 00 00        buffer_pointer dw 0 ;указатель на адрес буфера
   4+ 823A 01           closed db 1 ;флаг "соединение закрыто"
   5+ 823B              ;link_id db 0 ;текущий id соединения
   6+ 823B              buffer_end equ #40 ;ограничение буфера адрес #4000
   7+ 823B
   8+ 823B              ; Initialize Wifi chip to work
   9+ 823B              init:
  10+ 823B 21 B4 82         ld hl, .uartIniting
  10+ 823E CD 80 0A       call drvgmx.printZ
  11+ 8241 CD D8 81         call Uart.init ;
  12+ 8244 21 C5 82         ld hl, .chipIniting
  12+ 8247 CD 80 0A       call drvgmx.printZ
  13+ 824A                  ;EspCmdOkErr "ATE0"
  14+ 824A 21 94 84     	ld hl,cmd_ATE0
  15+ 824D CD 83 83     	call espSendZ
  16+ 8250 CD 1C 83     	call checkOkErr
  17+ 8253 38 3F            jr c, .initError
  18+ 8255
  19+ 8255                  ;EspCmdOkErr "AT+CIPSERVER=0"
  20+ 8255 21 9B 84     	ld hl,cmd_CIPSERVER
  21+ 8258 CD 83 83     	call espSendZ
  22+ 825B CD 1C 83     	call checkOkErr
  23+ 825E                  ;jr c, .initError ;не проверяем ошибку
  24+ 825E                  ;EspCmdOkErr "AT+CIPCLOSE" ;  Close if there some connection was. Don't care about result
  25+ 825E 21 CC 84     	ld hl,cmd_CIPCLOSE
  26+ 8261 CD 83 83     	call espSendZ
  27+ 8264 3E 35        	ld a,'5' ;закрыть все соединения
  28+ 8266 CD 25 82     	call Uart.write
  29+ 8269 3E 0D            ld a, 13
  29+ 826B CD 25 82       call Uart.write
  30+ 826E 3E 0A            ld a, 10
  30+ 8270 CD 25 82       call Uart.write
  31+ 8273 CD 1C 83     	call checkOkErr
  32+ 8276                  ;jr c, .initError ;не проверяем ошибку
  33+ 8276                  ;EspCmdOkErr "AT+CIPMUX=0" ; Single connection mode
  34+ 8276 21 D8 84     	ld hl,cmd_CIPMUX
  35+ 8279 CD 83 83     	call espSendZ
  36+ 827C CD 1C 83     	call checkOkErr
  37+ 827F 38 13            jr c, .initError
  38+ 8281
  39+ 8281                  ;EspCmdOkErr "AT+CIPDINFO=0" ; Disable additional info
  40+ 8281 21 E6 84     	ld hl,cmd_CIPDINFO
  41+ 8284 CD 83 83     	call espSendZ
  42+ 8287 CD 1C 83     	call checkOkErr
  43+ 828A 38 08            jr c, .initError
  44+ 828C
  45+ 828C 21 D6 82         ld hl, .doneInit
  45+ 828F CD 80 0A       call drvgmx.printZ
  46+ 8292
  47+ 8292 B7               or a
  48+ 8293 C9               ret
  49+ 8294              .initError
  50+ 8294 21 9C 82         ld hl, .errMsg
  50+ 8297 CD 80 0A       call drvgmx.printZ
  51+ 829A 37               scf
  52+ 829B C9               ret
  53+ 829C 57 69 46 69  .errMsg db "WiFi chip init failed!",13,0
  53+ 82A0 20 63 68 69
  53+ 82A4 70 20 69 6E
  53+ 82A8 69 74 20 66
  53+ 82AC 61 69 6C 65
  53+ 82B0 64 21 0D 00
  54+ 82B4 55 61 72 74  .uartIniting db "Uart initing...",13,0
  54+ 82B8 20 69 6E 69
  54+ 82BC 74 69 6E 67
  54+ 82C0 2E 2E 2E 0D
  54+ 82C4 00
  55+ 82C5 43 68 69 70  .chipIniting db "Chip initing...",13,0
  55+ 82C9 20 69 6E 69
  55+ 82CD 74 69 6E 67
  55+ 82D1 2E 2E 2E 0D
  55+ 82D5 00
  56+ 82D6 44 6F 6E 65  .doneInit    db "Done!",13,0
  56+ 82DA 21 0D 00
  57+ 82DD                  IFNDEF PROXY
  58+ 82DD              ; HL - host pointer in gopher row
  59+ 82DD              ; DE - port pointer in gopher row
  60+ 82DD              openTCP:
  61+ 82DD D5               push de
  62+ 82DE E5               push hl
  63+ 82DF                  ;EspCmdOkErr "AT+CIPCLOSE" ; Don't care about result. Just close if it didn't happens before
  64+ 82DF 21 CC 84     	ld hl,cmd_CIPCLOSE
  65+ 82E2 CD 83 83     	call espSendZ
  66+ 82E5              	; ld a,(link_id)
  67+ 82E5              	; call Uart.write
  68+ 82E5 3E 0D            ld a, 13
  68+ 82E7 CD 25 82       call Uart.write
  69+ 82EA 3E 0A            ld a, 10
  69+ 82EC CD 25 82       call Uart.write
  70+ 82EF CD 1C 83     	call checkOkErr
  71+ 82F2
  72+ 82F2                  ;EspSend 'AT+CIPSTART,"TCP","' ;
  73+ 82F2 21 AC 84     	ld hl,cmd_CIPSTART
  74+ 82F5 CD 83 83     	call espSendZ
  75+ 82F8              	; ld a,(link_id)
  76+ 82F8              	; call Uart.write
  77+ 82F8              	; ld hl,cmd_CIPSTART2
  78+ 82F8              	; call espSendZ
  79+ 82F8
  80+ 82F8
  81+ 82F8 E1               pop hl
  82+ 82F9 CD 8C 83         call espSendT
  83+ 82FC                  ;EspSend '",'
  84+ 82FC 3E 22            ld a, '"'
  84+ 82FE CD 25 82       call Uart.write
  85+ 8301 3E 2C            ld a, ','
  85+ 8303 CD 25 82       call Uart.write
  86+ 8306 E1               pop hl
  87+ 8307 CD 8C 83         call espSendT
  88+ 830A 3E 0D            ld a, 13
  88+ 830C CD 25 82       call Uart.write
  89+ 830F 3E 0A            ld a, 10
  89+ 8311 CD 25 82       call Uart.write
  90+ 8314 AF               xor a
  90+ 8315 32 3A 82       ld (closed), a
  91+ 8318 C3 1C 83         jp checkOkErr
  92+ 831B
  93+ 831B              continue:
  94+ 831B C9               ret
  95+ 831C                  ENDIF
  96+ 831C
  97+ 831C
  98+ 831C
  99+ 831C              checkOkErr:
 100+ 831C CD 19 82         call Uart.read
 101+ 831F FE 4F            cp 'O'
 101+ 8321 28 0A          jr z, .okStart ; OK
 102+ 8323 FE 45            cp 'E'
 102+ 8325 28 19          jr z, .errStart ; ERROR
 103+ 8327 FE 46            cp 'F'
 103+ 8329 28 36          jr z, .failStart ; FAIL
 104+ 832B 18 EF            jr checkOkErr
 105+ 832D              .okStart
 106+ 832D CD 19 82         call Uart.read
 106+ 8330 FE 4B          cp 'K'
 106+ 8332 20 E8          jr nz, checkOkErr
 107+ 8334 CD 19 82         call Uart.read
 107+ 8337 FE 0D          cp 13
 107+ 8339 20 E1          jr nz, checkOkErr
 108+ 833B CD 7B 83         call .flushToLF
 109+ 833E B7               or a
 110+ 833F C9               ret
 111+ 8340              .errStart
 112+ 8340 CD 19 82         call Uart.read
 112+ 8343 FE 52          cp 'R'
 112+ 8345 20 D5          jr nz, checkOkErr
 113+ 8347 CD 19 82         call Uart.read
 113+ 834A FE 52          cp 'R'
 113+ 834C 20 CE          jr nz, checkOkErr
 114+ 834E CD 19 82         call Uart.read
 114+ 8351 FE 4F          cp 'O'
 114+ 8353 20 C7          jr nz, checkOkErr
 115+ 8355 CD 19 82         call Uart.read
 115+ 8358 FE 52          cp 'R'
 115+ 835A 20 C0          jr nz, checkOkErr
 116+ 835C CD 7B 83         call .flushToLF
 117+ 835F 37               scf
 118+ 8360 C9               ret
 119+ 8361              .failStart
 120+ 8361 CD 19 82         call Uart.read
 120+ 8364 FE 41          cp 'A'
 120+ 8366 20 B4          jr nz, checkOkErr
 121+ 8368 CD 19 82         call Uart.read
 121+ 836B FE 49          cp 'I'
 121+ 836D 20 AD          jr nz, checkOkErr
 122+ 836F CD 19 82         call Uart.read
 122+ 8372 FE 4C          cp 'L'
 122+ 8374 20 A6          jr nz, checkOkErr
 123+ 8376 CD 7B 83         call .flushToLF
 124+ 8379 37               scf
 125+ 837A C9               ret
 126+ 837B              .flushToLF
 127+ 837B CD 19 82         call Uart.read
 128+ 837E FE 0A            cp 10
 128+ 8380 20 F9          jr nz, .flushToLF
 129+ 8382 C9               ret
 130+ 8383
 131+ 8383              ; Send buffer to UART
 132+ 8383              ; HL - buff
 133+ 8383              ; E - count
 134+ 8383              ; espSend:
 135+ 8383                  ; ld a, (hl) : call Uart.write
 136+ 8383                  ; inc hl
 137+ 8383                  ; dec e
 138+ 8383                  ; jr nz, espSend
 139+ 8383                  ; ret
 140+ 8383
 141+ 8383              ; Send buffer to UART
 142+ 8383              ; HL - buff (0 - end!)
 143+ 8383              espSendZ:
 144+ 8383 7E               ld a, (hl)
 145+ 8384 B7           	or a
 146+ 8385 C8           	ret z
 147+ 8386 CD 25 82     	call Uart.write
 148+ 8389 23               inc hl
 149+ 838A 18 F7            jr espSendZ
 150+ 838C
 151+ 838C
 152+ 838C              ; HL - string that ends with one of the terminator(CR/LF/TAB/NULL)
 153+ 838C              espSendT:
 154+ 838C 7E               ld a, (hl)
 155+ 838D
 156+ 838D A7               and a
 156+ 838E C8             ret z
 157+ 838F FE 09            cp 9
 157+ 8391 C8             ret z
 158+ 8392 FE 0D            cp 13
 158+ 8394 C8             ret z
 159+ 8395 FE 0A            cp 10
 159+ 8397 C8             ret z
 160+ 8398
 161+ 8398 CD 25 82         call Uart.write
 162+ 839B 23               inc hl
 163+ 839C 18 EE            jr espSendT
 164+ 839E
 165+ 839E              ; HL - stringZ to send
 166+ 839E              ; Adds CR LF
 167+ 839E              ; tcpSendZ:
 168+ 839E                  ; push hl
 169+ 839E                  ; ;EspSend "AT+CIPSEND=" ;
 170+ 839E              	; ld hl,cmd_CIPSEND
 171+ 839E              	; call espSendZ
 172+ 839E              	; ; ld a,(link_id)
 173+ 839E              	; ; call Uart.write
 174+ 839E                  ; ;ld a, ',' : call Uart.write
 175+ 839E
 176+ 839E                  ; pop de : push de
 177+ 839E                  ; call strLen
 178+ 839E                  ; inc hl : inc hl ; +CRLF
 179+ 839E                  ; call hlToNumEsp
 180+ 839E                  ; ld a, 13 : call Uart.write
 181+ 839E                  ; ld a, 10 : call Uart.write
 182+ 839E                  ; call checkOkErr : jr c,.exit_err
 183+ 839E              ; .wait
 184+ 839E                  ; call Uart.read : cp '>' : jr nz, .wait
 185+ 839E                  ; pop hl
 186+ 839E              ; .loop
 187+ 839E                  ; ld a, (hl) : and a : jr z, .exit
 188+ 839E                  ; call Uart.write
 189+ 839E                  ; inc hl
 190+ 839E                  ; jp .loop
 191+ 839E              ; .exit
 192+ 839E                  ; ld a, 13 : call Uart.write
 193+ 839E                  ; ld a, 10 : call Uart.write
 194+ 839E                  ; jp checkOkErr
 195+ 839E              ; .exit_err
 196+ 839E              	; pop hl
 197+ 839E              	; ret
 198+ 839E
 199+ 839E
 200+ 839E
 201+ 839E              ; HL - string to send
 202+ 839E              ; DE - lenght
 203+ 839E              ; Adds CR LF
 204+ 839E              tcpSend:
 205+ 839E E5               push hl
 206+ 839F D5           	push de ;
 207+ 83A0                  ;EspSend "AT+CIPSEND=" ;
 208+ 83A0 21 C0 84     	ld hl,cmd_CIPSEND
 209+ 83A3 CD 83 83     	call espSendZ
 210+ 83A6              	; ld a,(link_id)
 211+ 83A6              	; call Uart.write
 212+ 83A6                  ;ld a, ',' : call Uart.write
 213+ 83A6
 214+ 83A6 E1               pop hl
 214+ 83A7 E5             push hl ;длина
 215+ 83A8                  ;call strLen
 216+ 83A8 23               inc hl
 216+ 83A9 23             inc hl ; +CRLF
 217+ 83AA CD 6D 84         call hlToNumEsp
 218+ 83AD 3E 0D            ld a, 13
 218+ 83AF CD 25 82       call Uart.write
 219+ 83B2 3E 0A            ld a, 10
 219+ 83B4 CD 25 82       call Uart.write
 220+ 83B7 CD 1C 83         call checkOkErr
 220+ 83BA 38 21          jr c,.exit_err2
 221+ 83BC              .wait2
 222+ 83BC CD 19 82         call Uart.read
 222+ 83BF FE 3E          cp '>'
 222+ 83C1 20 F9          jr nz, .wait2
 223+ 83C3 D1           	pop de ;длина
 224+ 83C4 E1               pop hl
 225+ 83C5              .loop2
 226+ 83C5 7E               ld a, (hl)
 227+ 83C6 CD 25 82         call Uart.write
 228+ 83C9 23               inc hl
 229+ 83CA 1B           	dec de
 230+ 83CB 7A           	ld a,d
 231+ 83CC B3           	or e
 232+ 83CD C2 C5 83         jp nz, .loop2
 233+ 83D0              .exit2
 234+ 83D0 3E 0D            ld a, 13
 234+ 83D2 CD 25 82       call Uart.write
 235+ 83D5 3E 0A            ld a, 10
 235+ 83D7 CD 25 82       call Uart.write
 236+ 83DA C3 1C 83         jp checkOkErr
 237+ 83DD              .exit_err2
 238+ 83DD D1           	pop de
 239+ 83DE E1           	pop hl
 240+ 83DF C9           	ret
 241+ 83E0
 242+ 83E0
 243+ 83E0
 244+ 83E0
 245+ 83E0              getPacket:
 246+ 83E0 CD 19 82         call Uart.read
 247+ 83E3 FE 2B            cp '+'
 247+ 83E5 28 28          jr z, .ipdBegun    ; "+IPD," packet
 248+ 83E7 FE 4F            cp 'O'
 248+ 83E9 28 02          jr z, .closedBegun ; It enough to check "OSED\n" :-)
 249+ 83EB 18 F3            jr getPacket
 250+ 83ED              .closedBegun
 251+ 83ED CD 19 82         call Uart.read
 251+ 83F0 FE 53          cp 'S'
 251+ 83F2 20 EC          jr nz, getPacket
 252+ 83F4 CD 19 82         call Uart.read
 252+ 83F7 FE 45          cp 'E'
 252+ 83F9 20 E5          jr nz, getPacket
 253+ 83FB CD 19 82         call Uart.read
 253+ 83FE FE 44          cp 'D'
 253+ 8400 20 DE          jr nz, getPacket
 254+ 8402 CD 19 82         call Uart.read
 254+ 8405 FE 0D          cp 13
 254+ 8407 20 D7          jr nz, getPacket
 255+ 8409 3E 01 32 3A      ld a, 1, (closed), a
 255+ 840D 82
 256+ 840E C9               ret
 257+ 840F              .ipdBegun
 258+ 840F CD 19 82         call Uart.read
 258+ 8412 FE 49          cp 'I'
 258+ 8414 20 CA          jr nz, getPacket
 259+ 8416 CD 19 82         call Uart.read
 259+ 8419 FE 50          cp 'P'
 259+ 841B 20 C3          jr nz, getPacket
 260+ 841D CD 19 82         call Uart.read
 260+ 8420 FE 44          cp 'D'
 260+ 8422 20 BC          jr nz, getPacket
 261+ 8424 CD 19 82         call Uart.read ; Comma
 262+ 8427              	; call Uart.read ; link ID
 263+ 8427              	; ld (link_id),a ;запомнить
 264+ 8427              	;call Uart.read ; Comma
 265+ 8427 CD 54 84         call .count_ipd_lenght
 265+ 842A 22 36 82       ld (bytes_avail), hl
 266+ 842D 44 4D            ld bc, hl
 267+ 842F 2A 38 82         ld hl, (buffer_pointer)
 268+ 8432              .readp
 269+ 8432 7C               ld a, h
 269+ 8433 FE 40          cp buffer_end
 269+ 8435 30 12          jr nc, .skipbuff ;
 270+ 8437 C5 E5            push bc, hl
 271+ 8439 CD 19 82         call Uart.read
 272+ 843C E1 C1            pop hl, bc
 273+ 843E 77               ld (hl), a
 274+ 843F 0B               dec bc
 274+ 8440 23             inc hl
 275+ 8441 78               ld a, b
 275+ 8442 B1             or c
 275+ 8443 20 ED          jr nz, .readp
 276+ 8445 22 38 82         ld (buffer_pointer), hl
 277+ 8448 C9               ret
 278+ 8449              .skipbuff
 279+ 8449 C5               push bc
 280+ 844A CD 19 82         call Uart.read
 281+ 844D C1               pop bc
 282+ 844E 0B               dec bc
 282+ 844F 78             ld a, b
 282+ 8450 B1             or c
 282+ 8451 20 F6          jr nz, .skipbuff
 283+ 8453 C9               ret
 284+ 8454              .count_ipd_lenght
 285+ 8454 21 00 00     		ld hl,0			; count lenght
 286+ 8457 E5           .cil1	push  hl
 287+ 8458 CD 19 82             call Uart.read
 288+ 845B E1                   pop hl
 289+ 845C FE 3A        		cp ':'
 289+ 845E C8             ret z
 290+ 845F D6 30        		sub 0x30
 290+ 8461 4D             ld c,l
 290+ 8462 44             ld b,h
 290+ 8463 29             add hl,hl
 290+ 8464 29             add hl,hl
 290+ 8465 09             add hl,bc
 290+ 8466 29             add hl,hl
 290+ 8467 4F             ld c,a
 290+ 8468 06 00          ld b,0
 290+ 846A 09             add hl,bc
 291+ 846B 18 EA        		jr .cil1
 292+ 846D
 293+ 846D              ; Based on: https://wikiti.brandonw.net/index.php?title=Z80_Routines:Other:DispHL
 294+ 846D              ; HL - number
 295+ 846D              ; It will be written to UART
 296+ 846D              hlToNumEsp:
 297+ 846D 01 F0 D8     	ld	bc,-10000
 298+ 8470 CD 86 84     	call	.n1
 299+ 8473 01 18 FC     	ld	bc,-1000
 300+ 8476 CD 86 84     	call	.n1
 301+ 8479 01 9C FF     	ld	bc,-100
 302+ 847C CD 86 84     	call	.n1
 303+ 847F 0E F6        	ld	c,-10
 304+ 8481 CD 86 84     	call	.n1
 305+ 8484 0E FF        	ld	c,-1
 306+ 8486 3E 2F        .n1	ld	a,'0'-1
 307+ 8488 3C           .n2	inc	a
 308+ 8489 09           	add	hl,bc
 309+ 848A 38 FC        	jr	c, .n2
 310+ 848C ED 42        	sbc	hl,bc
 311+ 848E C5               push bc
 312+ 848F CD 25 82     	call Uart.write
 313+ 8492 C1               pop bc
 314+ 8493 C9               ret
 315+ 8494
 316+ 8494
 317+ 8494              ;команды
 318+ 8494 41 54 45 30  cmd_ATE0 db "ATE0",13,10,0 ;эхо?
 318+ 8498 0D 0A 00
 319+ 849B 41 54 2B 43  cmd_CIPSERVER db "AT+CIPSERVER=0",13,10,0 ;удалить сервер
 319+ 849F 49 50 53 45
 319+ 84A3 52 56 45 52
 319+ 84A7 3D 30 0D 0A
 319+ 84AB 00
 320+ 84AC 41 54 2B 43  cmd_CIPSTART db 'AT+CIPSTART="' ;продолжение
 320+ 84B0 49 50 53 54
 320+ 84B4 41 52 54 3D
 320+ 84B8 22
 321+ 84B9              	;тут тип
 322+ 84B9 54 43 50 22  cmd_CIPSTART2 db 'TCP","',0 ;продолжение
 322+ 84BD 2C 22 00
 323+ 84C0 41 54 2B 43  cmd_CIPSEND db "AT+CIPSEND=",0 ;отправить данные
 323+ 84C4 49 50 53 45
 323+ 84C8 4E 44 3D 00
 324+ 84CC              	;тут ID
 325+ 84CC 41 54 2B 43  cmd_CIPCLOSE db "AT+CIPCLOSE",0 ;закрыть соединение
 325+ 84D0 49 50 43 4C
 325+ 84D4 4F 53 45 00
 326+ 84D8              	;тут ID
 327+ 84D8 41 54 2B 43  cmd_CIPMUX db "AT+CIPMUX=0",13,10,0 ; Single connection mode
 327+ 84DC 49 50 4D 55
 327+ 84E0 58 3D 30 0D
 327+ 84E4 0A 00
 328+ 84E6 41 54 2B 43  cmd_CIPDINFO db "AT+CIPDINFO=0",13,10,0 ; Disable additional info
 328+ 84EA 49 50 44 49
 328+ 84EE 4E 46 4F 3D
 328+ 84F2 30 0D 0A 00
 329+ 84F6
 330+ 84F6                  ENDMODULE
# file closed: Drv/wifi.asm
 770  84F6              	include Drv/utils.asm ;работа с ESP
# file opened: Drv/utils.asm
   1+ 84F6              ;;; Macroses!!!!
   2+ 84F6                  ; MACRO EspSend Text
   3+ 84F6                  ; ld hl, .txtB
   4+ 84F6                  ; ld e, (.txtE - .txtB)
   5+ 84F6                  ; call espSend
   6+ 84F6                  ; jr .txtE
   7+ 84F6              ; .txtB
   8+ 84F6                  ; db Text
   9+ 84F6              ; .txtE
  10+ 84F6                  ; ENDM
  11+ 84F6
  12+ 84F6                  ; MACRO EspCmd Text
  13+ 84F6                  ; ld hl, .txtB
  14+ 84F6                  ; ld e, (.txtE - .txtB)
  15+ 84F6                  ; call espSend
  16+ 84F6                  ; jr .txtE
  17+ 84F6              ; .txtB
  18+ 84F6                  ; db Text
  19+ 84F6                  ; db 13, 10
  20+ 84F6              ; .txtE
  21+ 84F6                  ; ENDM
  22+ 84F6
  23+ 84F6                  ; MACRO EspCmdOkErr text
  24+ 84F6                  ; EspCmd text
  25+ 84F6                  ; call checkOkErr
  26+ 84F6                  ; ENDM
  27+ 84F6
  28+ 84F6              ; IN DE - string pointer
  29+ 84F6              ; OUT HL - string len
  30+ 84F6              strLen:
  31+ 84F6 21 00 00         ld hl, 0
  32+ 84F9              .loop
  33+ 84F9 1A               ld a, (de)
  33+ 84FA A7             and a
  33+ 84FB C8             ret z
  34+ 84FC 13 23            inc de, hl
  35+ 84FE 18 F9            jr .loop
# file closed: Drv/utils.asm
 771  8500
 772  8500              msg_esp_link
 773  8500 45 53 50 20  	db "ESP id: ",0
 773  8504 69 64 3A 20
 773  8508 00
 774  8509              msg_esp_transmit
 775  8509 54 72 6E 3A  	db "Trn: ",0
 775  850D 20 00
 776  850F              msg_esp_receive
 777  850F 52 63 76 3A  	db "Rcv: ",0
 777  8513 20 00
 778  8515              msg_esp_address
 779  8515 41 64 72 3A  	db "Adr: ",0
 779  8519 20 00
 780  851B
 781  851B              msg_ver_net
 782  851B 4E 45 54 20  	db "NET ver 2025.01.14",13,10,0
 782  851F 76 65 72 20
 782  8523 32 30 32 35
 782  8527 2E 30 31 2E
 782  852B 31 34 0D 0A
 782  852F 00
 783  8530
 784  8530              end_net
 785  8530              	savebin "net.apg",start_net,$-start_net
 786  8530
 787  8530              ;------------------------------------------------------------------------
 788  8530
 789  8530
 790  8530
 791  8530
 792  8530
 793  8530
 794  8530
 795  8530
 796  8530
 797  8530
 798  8530
 799  8530
 800  8530
 801  8530
 802  8530
 803  8530
 804  8530
 805  8530
 806  8530
 807  8530              ;ядро системы
 808  8530              	org #0000
 809  0000              	;bank 0
 810  0000              start_os_main
 811  0000
 812  0000 C3 01 C1     x0000	jp	InitProgramm + #c000	;RST #00	;+#C000 после запуска меняется
 813  0003 00 00 00...  	ds	#08-3
 814  0008
 815  0008 18 31        x0008	jr	x003B			;обработка RST #08
 816  000A 00           	nop
 817  000B 00           x000B	nop
 818  000C 00           	nop
 819  000D 18 75        x000D	jr	ExitMon
 820  000F 00           	ds	#01
 821  0010
 822  0010 C3 8B 0A     x0010	jp	drvgmx.putC  ;RST #10		;печать одного символа
 823  0013
 824  0013 ED 79        x0013	out	(c),a
 825  0015 00           	nop
 826  0016 00 00        	ds	#02
 827  0018
 828  0018 C3 49 06     x0018	jp os_wait ;передача управления ОС ;RST #18
 829  001B 00 00 00...  		ds #05 ;ds	#08
 830  0020
 831  0020 C3 1C 07     x0020	jp function  ;RST #20
 832  0023 00 00 00...  		ds	#05 ;#08
 833  0028
 834  0028 00 00 00...  x0028	ds	#08 ;RST #28
 835  0030
 836  0030 00 00 00     x0030	ds	#03 ;RST #30
 837  0033
 838  0033 ED 79        x0033	out	(c),a
 839  0035 00           	nop
 840  0036
 841  0036 00 24        x0036	dw	font
 842  0038
 843  0038              ;обработчик прерываний
 844  0038 C3 A0 07     x0038	jp	Interrupts ;#RST 38
 845  003B
 846  003B              ;обработка RST 8
 847  003B F5           x003B	push	af
 848  003C ED 5F        	ld	a,r
 849  003E EA 43 00     	jp	pe,x0043
 850  0041 ED 5F        	ld	a,r
 851  0043 F5           x0043	push	af
 852  0044 3E 10        	ld	a,#10			;вход из ram 0
 853  0046 F5           	push	af
 854  0047 33           	inc	sp
 855  0048 C5           	push	bc
 856  0049 E5           	push	hl
 857  004A 01 00 00     	ld	bc,#0000
 858  004D 3E 02        	ld	a,#02
 859  004F ED 79        	out	(c),a
 860  0051 01 FD 7E     	ld	bc,#7EFD
 861  0054 ED 60        	in	h,(c)			;h=in #7EFD
 862  0056 06 7A        	ld	b,#7A
 863  0058 ED 68        	in	l,(c)			;l=in #7AFD
 864  005A 06 1F        	ld	b,#1F
 865  005C 3E 12        	ld	a,#12
 866  005E 18 B3        	jr	x0013
 867  0060 00 00 00...  	ds	#06			;=#0060
 868  0066
 869  0066              ;обработка NMI
 870  0066              ;
 871  0066 F5           x0066   push  af
 872  0067 ED 5F           ld  a,r
 873  0069 F3              di
 874  006A F5              push  af
 875  006B 3E 20           ld  a,#20
 876  006D F5              push  af
 877  006E 33              inc  sp
 878  006F C5              push  bc
 879  0070 E5              push  hl
 880  0071 01 FD 7E        ld  bc,#7EFD
 881  0074 ED 60           in  h,(c)    ;h=in #7EFD
 882  0076 06 7A           ld  b,#7A
 883  0078 ED 68           in  l,(c)    ;l=in #7AFD
 884  007A 06 1F           ld  b,#1F    ;18 байт
 885  007C 3E 12           ld  a,#12
 886  007E C3 33 00        jp  x0033
 887  0081
 888  0081 00           	nop
 889  0082 00           	nop
 890  0083 00           	nop
 891  0084              x0084
 892  0084              ;возврат из монитора =#0084
 893  0084 ED 51        ExitMon	out	(c),d			;#1FFD
 894  0086 06 7F        	ld	b,#7F
 895  0088 ED 59        	out	(c),e			;#7FFD
 896  008A 01 00 00     	ld	bc,#0000
 897  008D ED 79        	out	(c),a
 898  008F D1           	pop	de
 899  0090 C1           	pop	bc
 900  0091 33           	inc	sp
 901  0092 F1           	pop	af
 902  0093 ED 4F        	ld	r,a
 903  0095 E2 9B 00     	jp	po,x009B
 904  0098 F1           	pop	af
 905  0099 FB           	ei
 906  009A C9           	ret
 907  009B F1           x009B	pop	af
 908  009C F3           	di
 909  009D C9           	ret
 910  009E
 911  009E              x009E
 912  009E              ; StartWord
 913  009E              	; ldir
 914  009E              	; call	onPageTXT
 915  009E              	; jp	MainLoopEdit
 916  009E              	; INSERT	"Info/!version.txt"
 917  009E              	; INSERT	"Info/!build.txt"
 918  009E              	; db	"GMX"
 919  009E 00 00 00...  y009E	ds	#00FF-$
 920  00FF
 921  00FF 38 00        x00FF	dw	x0038
 922  0101
 923  0101
 924  0101
 925  0101              ;Первый запуск
 926  0101              InitProgramm
 927  0101 F3           	di
 928  0102 31 00 41     	ld sp,#4100 ;временный адрес стека
 929  0105 3E 01        	ld a, #01 ;включить ОЗУ вместо ПЗУ
 930  0107 01 FD 1F         ld   bc,#1ffd
 931  010A ED 79        	out (c),a
 932  010C 21 15 01     	ld hl,Start_warm ;заменить адрес старта
 933  010F 22 01 00     	ld (#0001),hl
 934  0112 C3 00 00     	jp 0
 935  0115
 936  0115
 937  0115              ; rst #08: db #8F установка/удаление резидента из памяти
 938  0115              ; при "теплой" перезагрузке, если резидент установлен в странице, то эта страница
 939  0115                ; будет впечатана в 3е окно и управление передано по заданному адресу
 940  0115              ; вх:  a - номер страницы для установки резидента
 941  0115                      ; =#08 - удаление резидента
 942  0115                      ; 7,a =1 однократный вызов
 943  0115                   ; hl - адрес старта в странице
 944  0115              ; вых: cy=1 резидент не установлен
 945  0115              ; сначала копируем в эту страницу то что надо
 946  0115              ; и только потом вызываем функцию
 947  0115              ; для гмх страницу 8 и #78 задавать нельзя
 948  0115              ; перед повторной установкой резидента, вызывать функцию удаления не нужно
 949  0115
 950  0115              ;Старт системы
 951  0115              Start_warm
 952  0115              	;di
 953  0115 ED 56        	im 1
 954  0117
 955  0117              ;------------------------------------------------------------------------------
 956  0117              ;вызов функции #00(00) (SetRam0) установка работы со страницей ram 0 вместо rom, требуется для
 957  0117              ;корректного выхода из монитора, при ресете отключается
 958  0117              ;вх:  c=#00(00)
 959  0117              ;     cy=1 - установка
 960  0117              ;     cy=0 - отключение
 961  0117              ;вых: регистры не меняются
 962  0117              ;   R8CONF
 963  0117 0E 00        	ld	c,#00
 964  0119 37           	scf
 965  011A CF           	rst	#08
 966  011B 8E           	db	#8E
 967  011C              ;
 968  011C
 969  011C
 970  011C
 971  011C              	;подготовить системный процесс
 972  011C 3E 01        	ld a,proc_id_system ;код системного процесса
 973  011E 32 23 2C     	ld (proc_id_cur),a ;запомнить как текущий
 974  0121 32 07 2C     	ld (proc_id_focus),a ;сразу в фокусе
 975  0124              	;ld (proc_run_prepar_id_tmp),a ;для правильного выделения памяти
 976  0124 AF           	xor a
 977  0125 32 20 2C     	ld (proc_id_next),a ;для вычисления следующего процесса
 978  0128
 979  0128 3E 39        	ld a,con_scr_real ;экран реальный для драйвера
 980  012A 32 1B 2C     	ld (con_scr_cur),a
 981  012D 3E 79        	ld a,con_atr_real ;атрибуты реальные
 982  012F 32 1C 2C     	ld (con_atr_cur),a
 983  0132 3E 39        	ld a,#39 ;видимый экран
 984  0134 32 06 2C     	ld (scr_cur),a
 985  0137 CD D6 09     	call drvgmx.init
 986  013A
 987  013A CD 65 0D     	call Dos.init_fs_fat ;выбор раздела (буквы диска)
 988  013D
 989  013D 21 C0 35     	ld hl,proc_name_sys		;строка с именем
 990  0140 CD DE 02     	call proc_run ;запуск
 991  0143 DA 77 01     	jp c,loop_idle ;не вышло
 992  0146
 993  0146
 994  0146              	; ;запустить системный процесс
 995  0146              ; ;proc_run_sys
 996  0146              ; ;запуск sys не с диска, а из состава ОС
 997  0146              	; ld hl,proc_sys_name
 998  0146              	; call proc_run_prepar
 999  0146              	; ret c
1000  0146
1001  0146              	;включить страницы
1002  0146              	;;ld ix,(proc_run_prepar_deskr_tmp)
1003  0146 DD 7E 02     	ld a,(ix+2)
1004  0149 32 17 2C     	ld (page_slot2_cur),a ;сделать страницы текущими
1005  014C CD 5D 0C     	call drvgmx.PageSlot2
1006  014F DD 7E 03     	ld a,(ix+3)
1007  0152 32 18 2C     	ld (page_slot3_cur),a
1008  0155 CD 7C 0B     	call drvgmx.PageSlot3
1009  0158              	;цвета
1010  0158 3E 07        	ld a,proc_color_def ;цвет
1011  015A 32 9B 0C     	ld (drvgmx.attr_screen),a
1012  015D DD 77 0C     	ld (ix+#0c),a ;актрибуты (цвет текста)
1013  0160              	;
1014  0160 3E 0C        	ld a,proc_color2_def ;цвет 2
1015  0162 32 9C 0C     	ld (drvgmx.attr_screen2),a
1016  0165 DD 77 0D     	ld (ix+#0d),a ;актрибуты (цвет текста)
1017  0168              	; ;перенести код
1018  0168              	; ld hl,start_sys_incl
1019  0168              	; ld de,PROGSTART
1020  0168              	; ld bc,end_sys_incl-start_sys_incl
1021  0168              	; ldir
1022  0168              	;подготовить правильный старт
1023  0168 DD 6E 06     	ld l,(ix+6) ;стек нового процесса
1024  016B DD 66 07     	ld h,(ix+7) ;стек
1025  016E F9           	ld sp,hl
1026  016F
1027  016F 3E 01        	ld a,proc_id_system
1028  0171 DD 77 00     	ld (ix),a
1029  0174 C3 00 80     	jp PROG_START ;старт сначала на заглушку
1030  0177
1031  0177
1032  0177
1033  0177
1034  0177
1035  0177              loop_idle ;заглушка
1036  0177 18 FE        	jr loop_idle ;
1037  0179
1038  0179
1039  0179
1040  0179
1041  0179
1042  0179              ; proc_run_cmd
1043  0179              ; ; запуск cmd не с диска, а из состава ОС
1044  0179              	; ld hl,proc_cmd_name
1045  0179              	; call proc_run_prepar
1046  0179              	; ret c
1047  0179              	; ;включить страницы
1048  0179              	; ;ld ix,(proc_run_prepar_deskr_tmp)
1049  0179              	; ld a,(ix+2)
1050  0179              	; call drvgmx.PageSlot2
1051  0179              	; ld a,(ix+3)
1052  0179              	; call drvgmx.PageSlot3
1053  0179              	; ;перенести код
1054  0179              	; ld hl,start_cmd_incl
1055  0179              	; ld de,PROGSTART
1056  0179              	; ld bc,end_cmd_incl-start_cmd_incl
1057  0179              	; ldir
1058  0179
1059  0179              	; jp file_load_ok ;продолжить стандартно
1060  0179
1061  0179
1062  0179
1063  0179
1064  0179
1065  0179              proc_run_prepar
1066  0179              ;подготовка к запуску процесса
1067  0179              ;выделение памяти и прочее
1068  0179              ;вх: hl - имя процесса (файла) 8+3 символов
1069  0179              ;вых: a - номер процесса, IX - дескриптор
1070  0179
1071  0179 22 F8 01     	ld (proc_run_prepar_name_tmp),hl ;сохранить имя
1072  017C              	;поиск свободного дескриптора
1073  017C 21 00 2D     	ld hl,proc_table
1074  017F 11 00 01     	ld de,proc_descr_size
1075  0182 06 08        	ld b,proc_max ;цикл по максимальному количеству процессов
1076  0184 0E 01        	ld c,proc_id_system ;первый номер
1077  0186              proc_run_prepar_cl
1078  0186 7E           	ld a,(hl)
1079  0187 B7           	or a ;свободен?
1080  0188 28 0C        	jr z,proc_run_prepar_ok
1081  018A 19           	add hl,de
1082  018B 0C           	inc c
1083  018C 10 F8        	djnz proc_run_prepar_cl
1084  018E              	;не нашли свободного
1085  018E 21 EE 35     	ld hl,msg_proc_max
1086  0191 CD 80 0A     	call drvgmx.printZ ;сообщение
1087  0194 37           	scf
1088  0195 C9           	ret
1089  0196              proc_run_prepar_ok
1090  0196              	;есть свободный
1091  0196 E5           	push hl
1092  0197 DD E1        	pop ix ;дискриптор процесса
1093  0199 22 FC 01     	ld (proc_run_prepar_deskr_tmp),hl
1094  019C 79           	ld a,c ;присвоить номер
1095  019D 32 FA 01     	ld (proc_run_prepar_id_tmp),a
1096  01A0
1097  01A0
1098  01A0 3A 23 2C     	ld a,(proc_id_cur)
1099  01A3 DD 77 01     	ld (ix+1),a ;код родительского
1100  01A6
1101  01A6              	;скопировать имя
1102  01A6 11 10 00     	ld de,16 ;
1103  01A9 19           	add hl,de
1104  01AA EB           	ex de,hl
1105  01AB 2A F8 01     	ld hl,(proc_run_prepar_name_tmp)
1106  01AE 01 0C 00     	ld bc,8+3+1
1107  01B1 ED B0        	ldir
1108  01B3
1109  01B3
1110  01B3              	;выделение памяти стандартное количество окон
1111  01B3 CD 04 02     	call proc_find_ram
1112  01B6 38 1D        	jr c,proc_run_prepar_no_mem
1113  01B8 DD 77 02     	ld (ix+2),a ;страница 8000
1114  01BB CD 04 02     	call proc_find_ram
1115  01BE 38 15        	jr c,proc_run_prepar_no_mem
1116  01C0 DD 77 03     	ld (ix+3),a ;страница c000
1117  01C3 CD 04 02     	call proc_find_ram
1118  01C6 38 0D        	jr c,proc_run_prepar_no_mem
1119  01C8 DD 77 04     	ld (ix+4),a ;страница пиксели
1120  01CB CD 04 02     	call proc_find_ram
1121  01CE 38 05        	jr c,proc_run_prepar_no_mem
1122  01D0 DD 77 05     	ld (ix+5),a ;страница атрибуты
1123  01D3
1124  01D3 18 0E        	jr proc_run_prepar_mem_ok
1125  01D5
1126  01D5              proc_run_prepar_no_mem
1127  01D5 3A FA 01     	ld a,(proc_run_prepar_id_tmp)
1128  01D8 CD 1D 02     	call proc_clear_ram ;освободить память обратно
1129  01DB
1130  01DB 21 05 36     	ld hl,msg_mem_max
1131  01DE CD 80 0A     	call drvgmx.printZ ;сообщение
1132  01E1 37           	scf
1133  01E2 C9           	ret
1134  01E3
1135  01E3              proc_run_prepar_mem_ok ;памяти хватило
1136  01E3
1137  01E3              	;определить адрес стека
1138  01E3 3A FA 01     	ld a,(proc_run_prepar_id_tmp) ;id
1139  01E6 21 00 2C     	ld hl,proc_table-256
1140  01E9 84           	add h
1141  01EA 67           	ld h,a
1142  01EB 2E 80        	ld l,#80 ;на стек меньше 128 байт
1143  01ED              	; ld hl,proc_stack
1144  01ED              	; or a
1145  01ED              	; jr z,proc_run_prepar_ex
1146  01ED              	; ld b,a
1147  01ED              	; ld de,proc_stack_size
1148  01ED              ; proc_run_prepar_cl2 ;цикл
1149  01ED              	; add hl,de
1150  01ED              	; djnz proc_run_prepar_cl2
1151  01ED              ;proc_run_prepar_ex
1152  01ED DD 75 06     	ld (ix+6),l ;адрес стека
1153  01F0 DD 74 07     	ld (ix+7),h ;адрес стека
1154  01F3              	; ld a,(proc_run_prepar_id_tmp) ;id
1155  01F3              	; ld (ix+0),a
1156  01F3 3A FA 01     	ld a,(proc_run_prepar_id_tmp) ;id
1157  01F6 B7           	or a
1158  01F7 C9           	ret
1159  01F8
1160  01F8 00 00        proc_run_prepar_name_tmp dw 0 ;временно имя нового процесса
1161  01FA 00           proc_run_prepar_id_tmp db 0 ;временно id нового процесса
1162  01FB 00           proc_run_file_id_tmp db 0 ;временно id файла
1163  01FC 00 00        proc_run_prepar_deskr_tmp dw 0 ;временно дескриптор процесса
1164  01FE
1165  01FE
1166  01FE
1167  01FE
1168  01FE              proc_get_ram ;для вызова из процесса
1169  01FE 3A 23 2C     	ld a,(proc_id_cur)
1170  0201 32 FA 01     	ld (proc_run_prepar_id_tmp),a
1171  0204
1172  0204              proc_find_ram	;поиск свободной страницы памяти
1173  0204              ;вых: a - номер страницы, также записан id процесса в таблицу proc_page_table
1174  0204 11 DD 0B     	ld de,drvgmx.page_table ;таблица возможных вариантов с номерами страниц
1175  0207 21 00 35     	ld hl,proc_page_table ;таблица памяти приложений с кодами процессов
1176  020A 06 6D        	ld b,page_max
1177  020C              proc_find_ram_cl
1178  020C AF           	xor a
1179  020D B6           	or (hl)
1180  020E 28 06        	jr z,proc_find_ram_ok1 ;нашли
1181  0210              	;ищем дальше
1182  0210 23           	inc hl
1183  0211 13           	inc de
1184  0212 10 F8        	djnz proc_find_ram_cl
1185  0214              	;совсем не нашли
1186  0214 37           	scf
1187  0215 C9           	ret
1188  0216              proc_find_ram_ok1
1189  0216 3A FA 01     	ld a,(proc_run_prepar_id_tmp)
1190  0219 77           	ld (hl),a ;записать id процесса в таблицу
1191  021A 1A           	ld a,(de) ;вернуть номер страницы
1192  021B B7           	or a
1193  021C C9           	ret
1194  021D
1195  021D
1196  021D
1197  021D
1198  021D
1199  021D              proc_clear_ram ;освбождение всех страниц памяти процесса
1200  021D              ;вх: a - номер процесса
1201  021D 21 00 35     	ld hl,proc_page_table
1202  0220 06 6D        	ld b,page_max ;цикл сколько всего страниц в таблице
1203  0222              proc_clear_ram_cl ;
1204  0222 BE           	cp (hl) ;совпадает с номером процесса?
1205  0223 20 02        	jr nz,proc_clear1
1206  0225 36 00        	ld (hl),0 ;освободить
1207  0227              proc_clear1
1208  0227 23           	inc hl
1209  0228 10 F8        	djnz proc_clear_ram_cl
1210  022A B7           	or a
1211  022B C9           	ret
1212  022C
1213  022C
1214  022C
1215  022C              proc_focus_next
1216  022C              	;переключение фокуса на следующий процесс
1217  022C 3E 01        	ld a,1
1218  022E 32 0D 2C     	ld (proc_next_find_skip_flag),a ;флаг пропустить лишние проверки
1219  0231 3A 07 2C     	ld a,(proc_id_focus)
1220  0234 CD 84 09     	call proc_next_find_skip ;узнать кто следующий
1221  0237 08           	ex af,af'
1222  0238 AF           	xor a
1223  0239 32 0D 2C     	ld (proc_next_find_skip_flag),a ;флаг убрать
1224  023C 08           	ex af,af'
1225  023D              	;ret c ;выернуться если один процесс
1226  023D              	;или сменить фокус, код ниже
1227  023D
1228  023D
1229  023D
1230  023D              ;передать фокус процессу
1231  023D              ;вх: a - id процесса
1232  023D              proc_set_focus
1233  023D 21 07 2C     	ld hl,proc_id_focus
1234  0240 BE           	cp (hl)
1235  0241 C8           	ret z ;если уже в фокусе, ничего не делаем
1236  0242 32 D0 02     	ld (proc_set_focus_id_tmp),a ;сохранить
1237  0245
1238  0245 21 00 2C     	ld hl,proc_table-256 ;проверка активен ли заданный процесс
1239  0248 84           	add h
1240  0249 67           	ld h,a
1241  024A AF           	xor a
1242  024B B6           	or (hl)
1243  024C C8           	ret z
1244  024D
1245  024D
1246  024D              	;сохранить в буфер процесса текущий экран
1247  024D 3A 07 2C     	ld a,(proc_id_focus) ;текущий в фокусе
1248  0250 21 00 2C     	ld hl,proc_table - 256
1249  0253 84           	add h
1250  0254 67           	ld h,a
1251  0255 E5           	push hl
1252  0256 DD E1        	pop ix ;дескриптор процесса предыдущего
1253  0258
1254  0258 DD 7E 04     	ld a,(ix + 04) ;буфер пиксели
1255  025B CD 7C 0B     	call drvgmx.PageSlot3
1256  025E 3E 39        	ld a,con_scr_real ;настоящий экран
1257  0260 CD 5D 0C     	call drvgmx.PageSlot2
1258  0263 21 00 80     	ld hl,#8000 ;скопировать
1259  0266 11 00 C0     	ld de,#c000
1260  0269 01 00 40     	ld bc,#4000
1261  026C ED B0        	ldir
1262  026E
1263  026E DD 7E 05     	ld a, (ix + 05) ;буфер атрибуты
1264  0271 CD 7C 0B     	call drvgmx.PageSlot3
1265  0274 3E 79        	ld a,con_atr_real
1266  0276 CD 5D 0C     	call drvgmx.PageSlot2
1267  0279 21 00 80     	ld hl,#8000 ;скопировать
1268  027C 11 00 C0     	ld de,#c000
1269  027F 01 00 40     	ld bc,#4000
1270  0282 ED B0        	ldir
1271  0284
1272  0284              	;сохранить позицию скрола
1273  0284              	;ld hl,(drvgmx.curscrl)
1274  0284              	;ld (ix+#08),hl ;позиция скрола
1275  0284
1276  0284
1277  0284              	;вернуть из буфера экран нужного процесса
1278  0284 3A D0 02     	ld a,(proc_set_focus_id_tmp)
1279  0287 21 00 2C     	ld hl,proc_table - 256
1280  028A 84           	add h
1281  028B 67           	ld h,a
1282  028C E5           	push hl
1283  028D DD E1        	pop ix ;дескриптор процесса который будет в фокусе
1284  028F
1285  028F DD 7E 04     	ld a,(ix + 04) ;буфер пиксели
1286  0292 CD 7C 0B     	call drvgmx.PageSlot3
1287  0295 3E 39        	ld a,con_scr_real ;настоящий экран
1288  0297 CD 5D 0C     	call drvgmx.PageSlot2
1289  029A 21 00 C0     	ld hl,#c000 ;скопировать
1290  029D 11 00 80     	ld de,#8000
1291  02A0 01 00 40     	ld bc,#4000
1292  02A3 ED B0        	ldir
1293  02A5
1294  02A5 DD 7E 05     	ld a, (ix + 05) ;буфер атрибуты
1295  02A8 CD 7C 0B     	call drvgmx.PageSlot3
1296  02AB 3E 79        	ld a,con_atr_real
1297  02AD CD 5D 0C     	call drvgmx.PageSlot2
1298  02B0 21 00 C0     	ld hl,#c000 ;скопировать
1299  02B3 11 00 80     	ld de,#8000
1300  02B6 01 00 40     	ld bc,#4000
1301  02B9 ED B0        	ldir
1302  02BB
1303  02BB CD D1 02     	call page_cur_return
1304  02BE
1305  02BE
1306  02BE 3A D0 02     	ld a,(proc_set_focus_id_tmp)
1307  02C1              	;запомнить активный процесс
1308  02C1 32 07 2C     	ld (proc_id_focus),a
1309  02C4
1310  02C4              	;ld hl,(ix+#08) ;позиция скрола
1311  02C4              	;ld (drvgmx.curscrl),hl
1312  02C4              	;call drvgmx.gmxscroll ;обновить скролл
1313  02C4 DD 7E 1D     	ld a, (ix + #1d) ;активный экран
1314  02C7 B7           	or a
1315  02C8 28 03        	jr z,proc_set_focus_scr
1316  02CA CD A7 04     	call set_scr_no_txt ;включить
1317  02CD              proc_set_focus_scr
1318  02CD C3 A0 07     	jp Interrupts ;сразу на другой процесс
1319  02D0              	;or a
1320  02D0              	;ret
1321  02D0 00           proc_set_focus_id_tmp db 0 ; временно
1322  02D1
1323  02D1
1324  02D1
1325  02D1              page_cur_return
1326  02D1              ;вернуть текущие страницы
1327  02D1 3A 17 2C     	ld a,(page_slot2_cur)
1328  02D4 CD 5D 0C     	call drvgmx.PageSlot2
1329  02D7 3A 18 2C     	ld a,(page_slot3_cur)
1330  02DA CD 7C 0B     	call drvgmx.PageSlot3
1331  02DD C9           	ret
1332  02DE
1333  02DE
1334  02DE              ;запустить процесс
1335  02DE              ;вх: hl - имя файла (заканчивается на 0)
1336  02DE              proc_run
1337  02DE CD 79 01     	call proc_run_prepar ;выделить память
1338  02E1 D8           	ret c
1339  02E2
1340  02E2 2A F8 01     	ld hl,(proc_run_prepar_name_tmp) ;имя
1341  02E5              	;ld b,Dos.FMODE_READ
1342  02E5 CD F0 0C     	call Dos.fopen_r ;откроем файл для чтения
1343  02E8 DC 5F 0E     	call c,Dos.file_error_print_file_open_error
1344  02EB DA D3 03     	jp c,file_load_err
1345  02EE 32 FB 01     	ld (proc_run_file_id_tmp),a ;запомнить id
1346  02F1
1347  02F1              	;проверка длины файла не больше #8000
1348  02F1 7A           	ld	a,d ;самые старшие байты длины
1349  02F2 B3           	or e
1350  02F3 28 09        	jr z,file_size_ok ;если не слищком большой
1351  02F5              file_too_big
1352  02F5 21 72 10     	ld hl,Dos.msg_file_too_big
1353  02F8 CD 80 0A     	call drvgmx.printZ
1354  02FB C3 D3 03     	jp file_load_err
1355  02FE
1356  02FE
1357  02FE              file_size_ok
1358  02FE 78           	ld	a,b ;младший старший байт длины
1359  02FF FE 81        	cp proc_size_max+1
1360  0301 30 F2        	jr nc,file_too_big
1361  0303              	;размер нормальный, прочитаем
1362  0303
1363  0303
1364  0303
1365  0303              	;включить страницы
1366  0303 DD 2A FC 01  	ld ix,(proc_run_prepar_deskr_tmp)
1367  0307 DD 7E 02     	ld a,(ix+2)
1368  030A CD 5D 0C     	call drvgmx.PageSlot2
1369  030D DD 7E 03     	ld a,(ix+3)
1370  0310 CD 7C 0B     	call drvgmx.PageSlot3
1371  0313
1372  0313 21 00 80     	ld hl,PROG_START
1373  0316 3A FB 01     	ld a,(proc_run_file_id_tmp)
1374  0319 50           	ld d,b ;размер
1375  031A 59           	ld e,c
1376  031B CD A9 0E     	call Dos.fread
1377  031E 30 0E        	jr nc,file_size_ok2
1378  0320              	;если ошибка вернуть страницы
1379  0320 CD 67 0E     	call Dos.file_error_print_file_read_error
1380  0323 CD D1 02     	call page_cur_return
1381  0326 3A FB 01     	ld a,(proc_run_file_id_tmp)
1382  0329 CD 6F 0E     	call Dos.fclose ;закрыть файл
1383  032C 37           	scf
1384  032D C9           	ret
1385  032E              file_size_ok2
1386  032E 3A FB 01     	ld a,(proc_run_file_id_tmp)
1387  0331 CD 6F 0E     	call Dos.fclose ;закрыть файл
1388  0334              	;jr file_load_ok
1389  0334
1390  0334              	;скопировать дескриптор системной папки, будет у приложения такая же папка по умолчанию
1391  0334 3A FA 01     	ld a,(proc_run_prepar_id_tmp) ;номер будущего процесса
1392  0337 CD 2D 0F     	call Dos.calc_dir_deskr
1393  033A EB           	ex de,hl
1394  033B 21 E2 10     	ld hl,Dos.dir_fat_deskr
1395  033E 01 20 00     	ld bc,Dos.fcb_fat_size
1396  0341 ED B0        	ldir
1397  0343
1398  0343              file_load_ok ;загрузился нормально
1399  0343 DD 2A FC 01  	ld ix,(proc_run_prepar_deskr_tmp) ;вспомнить дескриптор
1400  0347              	;очистить экран
1401  0347              	;сначала запомнить как было
1402  0347 2A 9B 0C     	ld hl,(drvgmx.attr_screen)
1403  034A 22 D5 03     	ld (proc_run_attr_screen_tmp),hl
1404  034D              	; запомнить координаты экрана предыдущего
1405  034D 2A 99 0C     	ld hl,(drvgmx.col_screen)
1406  0350 22 D9 03     	ld (proc_run_col_screen_tmp),hl ;координаты
1407  0353              	;страницы буфера
1408  0353 3A 1B 2C     	ld a,(con_scr_cur)
1409  0356 32 D7 03     	ld (proc_run_con_scr_cur_tmp),a
1410  0359 3A 1C 2C     	ld a,(con_atr_cur)
1411  035C 32 D8 03     	ld (proc_run_con_atr_cur_tmp),a
1412  035F              	;скрола
1413  035F 2A 6D 0B     	ld hl,(drvgmx.curscrl)
1414  0362 22 DB 03     	ld (proc_run_curscrl_tmp),hl
1415  0365
1416  0365
1417  0365
1418  0365              	;чистить буфер экрана
1419  0365 3E 07        	ld a,proc_color_def ;цвет
1420  0367 32 9B 0C     	ld (drvgmx.attr_screen),a
1421  036A DD 77 0C     	ld (ix+#0c),a ;актрибуты (цвет текста)
1422  036D              	;
1423  036D 3E 0C        	ld a,proc_color2_def ;цвет 2
1424  036F 32 9C 0C     	ld (drvgmx.attr_screen2),a
1425  0372 DD 77 0D     	ld (ix+#0d),a ;актрибуты (цвет текста)
1426  0375              	;
1427  0375 DD 7E 04     	ld a,(ix+4)
1428  0378 32 1B 2C     	ld (con_scr_cur),a
1429  037B DD 7E 05     	ld a,(ix+5)
1430  037E 32 1C 2C     	ld (con_atr_cur),a
1431  0381 CD D9 09     	call drvgmx.cls
1432  0384 21 00 00     	ld hl,0
1433  0387 DD 75 08 DD  	ld (ix+#08),hl ;позиция скрола
1433  038B 74 09
1434  038D DD 75 0A DD  	ld (ix+#0a),hl ;позиция курсора
1434  0391 74 0B
1435  0393              	;вернуть
1436  0393 2A D5 03     	ld hl,(proc_run_attr_screen_tmp)
1437  0396 22 9B 0C     	ld (drvgmx.attr_screen),hl
1438  0399 2A D9 03     	ld hl,(proc_run_col_screen_tmp) ;координаты
1439  039C 22 99 0C     	ld (drvgmx.col_screen),hl
1440  039F 3A D7 03     	ld a,(proc_run_con_scr_cur_tmp)
1441  03A2 32 1B 2C     	ld (con_scr_cur),a
1442  03A5 3A D8 03     	ld a,(proc_run_con_atr_cur_tmp)
1443  03A8 32 1C 2C     	ld (con_atr_cur),a
1444  03AB 2A DB 03     	ld hl,(proc_run_curscrl_tmp)
1445  03AE 22 6D 0B     	ld (drvgmx.curscrl),hl
1446  03B1
1447  03B1
1448  03B1
1449  03B1
1450  03B1              	;подготовить правильный старт
1451  03B1 DD 6E 06     	ld l,(ix+6) ;адрес стека
1452  03B4 DD 66 07     	ld h,(ix+7) ;адрес стека
1453  03B7 01 00 80     	ld bc,PROG_START ;возврат сюда
1454  03BA 2B           	dec hl
1455  03BB 70           	ld (hl),b
1456  03BC 2B           	dec hl
1457  03BD 71           	ld (hl),c
1458  03BE 01 EC FF     	ld bc,-20 ;возврат будет с восстановлением регистров
1459  03C1 09           	add hl,bc
1460  03C2
1461  03C2 DD 75 06     	ld (ix+6),l ;адрес стека
1462  03C5 DD 74 07     	ld (ix+7),h ;адрес стека
1463  03C8 3A FA 01     	ld a,(proc_run_prepar_id_tmp)
1464  03CB DD 77 00     	ld (ix),a ;в последнюю очередь код (флаг что процесс работает)
1465  03CE
1466  03CE CD D1 02     	call page_cur_return
1467  03D1 B7           	or a
1468  03D2 C9           	ret
1469  03D3
1470  03D3
1471  03D3              file_load_err
1472  03D3 37           	scf
1473  03D4 C9           	ret
1474  03D5
1475  03D5 00 00        proc_run_attr_screen_tmp dw 0 ;временно
1476  03D7 00           proc_run_con_scr_cur_tmp db 0 ;временно
1477  03D8 00           proc_run_con_atr_cur_tmp db 0 ;временно
1478  03D9 00 00        proc_run_col_screen_tmp dw 0 ;временно
1479  03DB 00 00        proc_run_curscrl_tmp dw 0 ;временно
1480  03DD
1481  03DD
1482  03DD
1483  03DD
1484  03DD
1485  03DD
1486  03DD
1487  03DD
1488  03DD              get_c ;функция получение кода нажатой клавиши
1489  03DD              	;вых: a - код последней клавиши, 255 - ничего не нажато
1490  03DD 3A 23 2C     	ld a,(proc_id_cur) ;сравнить если процесс в фокусе
1491  03E0 21 07 2C     	ld hl,proc_id_focus
1492  03E3 BE           	cp (hl)
1493  03E4 3E FF        	ld a,255 ;ничего не нажато если не в фокусе
1494  03E6 C0           	ret nz
1495  03E7 3A 1D 2C     	ld a,(key_cur) ;или вернуть клавишу
1496  03EA F5           	push af
1497  03EB 3E FF        	ld a,255
1498  03ED 32 1D 2C     	ld (key_cur),a ;очистить буфер
1499  03F0 F1           	pop af
1500  03F1 C9           	ret
1501  03F2
1502  03F2              get_timer ;функция получить значение системного таймера
1503  03F2 ED 5B 25 2C  	ld de,(sys_timer) ;младшие байты
1504  03F6 2A 27 2C     	ld hl,(sys_timer+2)
1505  03F9 C9           	ret
1506  03FA
1507  03FA
1508  03FA
1509  03FA              page_copy ;скопировать страницу в страницу
1510  03FA              ;скопировать данные из страницы в страницу
1511  03FA              ;вх: hl - откуда (абсолютный адрес 0-ffff); de - куда; ix - длина; a - страница слот2; b - страница слот3;
1512  03FA ED 43 30 04  	ld (page_copy_tmp),bc
1513  03FE 32 30 04     	ld (page_copy_tmp),a
1514  0401 D9           	exx
1515  0402 CD 32 04     	call page_check_owner 	;проверка разрешений
1516  0405 D8           	ret c
1517  0406 3A 31 04     	ld a,(page_copy_tmp+1)
1518  0409 CD 32 04     	call page_check_owner 	;проверка разрешений
1519  040C D8           	ret c
1520  040D DD 7C        	ld a,ixh ;не больше размера страницы
1521  040F FE 41        	cp #41
1522  0411 30 1B        	jr nc,page_copy_err
1523  0413 DD B5        	or ixl
1524  0415 28 17        	jr z,page_copy_err ;и не 0 длина
1525  0417 3A 30 04     	ld a,(page_copy_tmp)
1526  041A CD 5D 0C     	call drvgmx.PageSlot2
1527  041D 3A 31 04     	ld a,(page_copy_tmp+1)
1528  0420 CD 7C 0B     	call drvgmx.PageSlot3
1529  0423 D9           	exx ;вспомнить регистры
1530  0424              	 ;скопировать
1531  0424 DD E5        	push ix
1532  0426 C1           	pop bc ;длина
1533  0427 ED B0        	ldir
1534  0429 CD D1 02     	call page_cur_return ;вернуть страницы
1535  042C AF           	xor a
1536  042D C9           	ret
1537  042E              page_copy_err
1538  042E 37           	scf
1539  042F C9           	ret
1540  0430
1541  0430
1542  0430 00 00        page_copy_tmp dw 0 ;временно
1543  0432
1544  0432              page_check_owner ;проверить разрешена ли страница для процесса
1545  0432 FE 05        	cp #05 ;видео страница
1546  0434 C8           	ret z
1547  0435 FE 07        	cp #07 ;видео страница
1548  0437 C8           	ret z
1549  0438 FE 39        	cp #39 ;видео страница
1550  043A C8           	ret z
1551  043B FE 3A        	cp #3a ;видео страница
1552  043D C8           	ret z
1553  043E FE 79        	cp #79 ;видео страница
1554  0440 C8           	ret z
1555  0441 FE 7A        	cp #7a ;видео страница
1556  0443 C8           	ret z
1557  0444 32 68 04     	ld (page_check_owner_tmp),a
1558  0447 21 DD 0B     	ld hl,drvgmx.page_table ;таблица памяти
1559  044A 06 6D        	ld b,page_max ;всего страниц
1560  044C 0E 00        	ld c,0 ;индекс
1561  044E              page_check_owner_cl ;найти такую страницу
1562  044E BE           	cp (hl)
1563  044F 28 06        	jr z,page_check_owner_ex
1564  0451 0C           	inc c
1565  0452 23           	inc hl
1566  0453 10 F9        	djnz page_check_owner_cl
1567  0455 37           	scf ;не нашли в списке страниц
1568  0456 C9           	ret
1569  0457              page_check_owner_ex
1570  0457              	;нашли
1571  0457 06 00        	ld b,0
1572  0459 21 00 35     	ld hl,proc_page_table ;сверить с кодом текущего процесса
1573  045C 09           	add hl,bc
1574  045D 3A 23 2C     	ld a,(proc_id_cur)
1575  0460 BE           	cp (hl)
1576  0461 37           	scf ;не совпадает владелец с процессом
1577  0462 3A 68 04     	ld a,(page_check_owner_tmp)
1578  0465 C0           	ret nz
1579  0466 B7           	or a
1580  0467 C9           	ret
1581  0468 00           page_check_owner_tmp db 0 ;временно
1582  0469
1583  0469
1584  0469              set_VTPL_PLAY ;запустить плеер AY. будет играть на прерываниях
1585  0469 3A 17 2C     	ld a,(page_slot2_cur)
1586  046C 32 04 2C     	ld (proc_play_ay_slot2),a ;запомнить страницы с музыкой
1587  046F 3A 18 2C     	ld a,(page_slot3_cur)
1588  0472 32 05 2C     	ld (proc_play_ay_slot3),a
1589  0475 3A 23 2C     	ld a,(proc_id_cur) ;код процесса, который играет музыку
1590  0478 32 03 2C     	ld (proc_play_ay),a
1591  047B C9           	ret
1592  047C
1593  047C              set_VTPL_MUTE ;остановить плеер AY
1594  047C AF           	xor a
1595  047D 32 03 2C     	ld (proc_play_ay),a
1596  0480 C3 6D 17     	jp VTPL.MUTE
1597  0483
1598  0483
1599  0483              get_VTPL_SETUP ;получить адрес переменной плеера
1600  0483 21 48 17     	ld hl,VTPL.SETUP
1601  0486 C9           	ret
1602  0487
1603  0487
1604  0487              get_proc_page ;получить номера страниц процесса
1605  0487              	;вых: BC - страницы в слоте 2, 3
1606  0487 3A 17 2C     	ld a,(page_slot2_cur)
1607  048A 47           	ld b,a
1608  048B 3A 18 2C     	ld a,(page_slot3_cur)
1609  048E 4F           	ld c,a
1610  048F C9           	ret
1611  0490
1612  0490
1613  0490              set_scr ;установить активный экран
1614  0490              	;проверки
1615  0490 08           	ex af,af'
1616  0491 3A 23 2C     	ld a,(proc_id_cur)
1617  0494 21 07 2C     	ld hl,proc_id_focus
1618  0497 BE           	cp (hl)
1619  0498 20 21        	jr nz,set_scr_err
1620  049A CD D3 06     	call get_proc_descr
1621  049D 08           	ex af,af'
1622  049E DD 77 1C     	ld (ix+#1c),a ;запомнить
1623  04A1 B7           	or a
1624  04A2 20 03        	jr nz,set_scr_no_txt
1625  04A4              	;включить текстовый
1626  04A4 C3 C1 0B     	jp drvgmx.set_scr39	;основной экран
1627  04A7              set_scr_no_txt
1628  04A7 FE 05        	cp #05
1629  04A9 CA A5 0B     	jp z,drvgmx.set_scr5
1630  04AC FE 07        	cp #07
1631  04AE CA B3 0B     	jp z,drvgmx.set_scr7
1632  04B1 FE 39        	cp #39
1633  04B3 CA C1 0B     	jp z,drvgmx.set_scr39
1634  04B6 FE 3A        	cp #3a
1635  04B8 CA CF 0B     	jp z,drvgmx.set_scr3a
1636  04BB              set_scr_err
1637  04BB 37           	scf
1638  04BC C9           	ret
1639  04BD
1640  04BD              set_page_slot2	;включить страницу в слот 2 (#8000);
1641  04BD CD 32 04     	call page_check_owner ;проверить принадлежит ли страница процессу
1642  04C0 D8           	ret c
1643  04C1 08           	ex af,af'
1644  04C2 3A 23 2C     	ld a,(proc_id_cur)
1645  04C5 CD D3 06     	call get_proc_descr
1646  04C8 08           	ex af,af'
1647  04C9 DD 77 02     	ld (ix+#02),a ;запомнить текущую страницу процесса
1648  04CC 32 17 2C     	ld (page_slot2_cur),a
1649  04CF C3 5D 0C     	jp drvgmx.PageSlot2 ;включить
1650  04D2
1651  04D2
1652  04D2              set_page_slot3	;включить страницу в слот 3 (#c000);
1653  04D2 CD 32 04     	call page_check_owner ;проверить принадлежит ли страница процессу
1654  04D5 D8           	ret c
1655  04D6 08           	ex af,af'
1656  04D7 3A 23 2C     	ld a,(proc_id_cur)
1657  04DA CD D3 06     	call get_proc_descr
1658  04DD 08           	ex af,af'
1659  04DE DD 77 03     	ld (ix+#03),a ;запомнить текущую страницу процесса
1660  04E1 32 18 2C     	ld (page_slot3_cur),a
1661  04E4 C3 7C 0B     	jp drvgmx.PageSlot3
1662  04E7
1663  04E7
1664  04E7
1665  04E7              set_interrupt ;установка адреса обработчика прерываний процесса;
1666  04E7 EB           	ex de,hl
1667  04E8 3A 23 2C     	ld a,(proc_id_cur)
1668  04EB CD D3 06     	call get_proc_descr ;узнать адрес дескриптора
1669  04EE EB           	ex de,hl
1670  04EF DD 75 0E     	ld (ix+#0e),l ;адрес
1671  04F2 DD 74 0F     	ld (ix+#0f),h ;адрес
1672  04F5 C9           	ret
1673  04F6
1674  04F6
1675  04F6
1676  04F6
1677  04F6              ;вх: a - тип соединения 0-tcp, 1-udp, 2-ssl; hl - строка адрес, de - строка порт
1678  04F6              ;вых: CY=0 - OK; CY=1 - занято другим процессом или нет uart
1679  04F6              ;вых: ix - адрес в таблице соединений (ix+2 - флаг открытия =1 - открыто);
1680  04F6              esp_open ;установить соединение ESP (CIPSTART);
1681  04F6 08           	ex af,af'
1682  04F7 CD 7B 05     	call esp_check_err
1683  04FA D8           	ret c
1684  04FB 08           	ex af,af'
1685  04FC FE 03        	cp 3
1686  04FE 28 21        	jr z,esp_open_direct ;для терминала
1687  0500 DD 77 0E     	ld (ix+14),a ;тип
1688  0503 D5           	push de ;сохранить порт
1689  0504 11 8F 35     	ld de,esp_link_id_table+15 ;на имя сервера
1690  0507 CD E2 05     	call copyZ ;скопировать
1691  050A 11 BB 35     	ld de,esp_link_id_table+59 ;тут адрес порта
1692  050D E1           	pop hl
1693  050E CD E2 05     	call copyZ
1694  0511 3A 23 2C     	ld a,(proc_id_cur)
1695  0514 DD 77 00     	ld (ix),a ;флаг занято
1696  0517 DD 36 02 00  	ld (ix+2),0 ;флаг результат открытия
1697  051B DD 36 01 01  	ld (ix+1),1 ;флаг запрос на открытие
1698  051F AF           	xor a
1699  0520 C9           	ret
1700  0521
1701  0521              esp_open_direct ;прямая связь с портом
1702  0521 3A 23 2C     	ld a,(proc_id_cur)
1703  0524 DD 77 00     	ld (ix),a ;флаг занято
1704  0527 AF           	xor a
1705  0528 C9           	ret
1706  0529
1707  0529              esp_open_err
1708  0529 3E FF        	ld a,255
1709  052B 37           	scf
1710  052C C9           	ret
1711  052D
1712  052D
1713  052D
1714  052D              ;вх:
1715  052D              ;вых: CY=0 - OK; CY=1 - занято другим процессом или нет uart
1716  052D              esp_close ;закрыть соединение ESP
1717  052D CD 7B 05     	call esp_check_err
1718  0530 D8           	ret c
1719  0531 AF           	xor a
1720  0532 DD 77 00     	ld (ix),a ;закрыть
1721  0535 C9           	ret
1722  0536
1723  0536
1724  0536
1725  0536
1726  0536              ;вх: hl - адрес данных, de - длина данных
1727  0536              ;вых: CY=0 - OK; CY=1 - занято другим процессом или нет uart
1728  0536              ;вых: ix - адрес в таблице соединений (ix+4 - флаг =1 - отправлено)
1729  0536              esp_send ;послать запрос ESP (CIPSEND);
1730  0536 CD 7B 05     	call esp_check_err
1731  0539 D8           	ret c
1732  053A D5           	push de ; длина
1733  053B C1           	pop bc
1734  053C DD 73 09     	ld (ix+9),e  ;длина
1735  053F DD 72 0A     	ld (ix+10),d
1736  0542 11 2D 36     	ld de,esp_buffer ;перенести данные в буфер отправки
1737  0545 ED B0        	ldir
1738  0547
1739  0547 DD 36 04 00  	ld (ix+4),0 ;флаг результат отправки
1740  054B DD 36 03 01  	ld (ix+3),1 ;флаг запрос отправки
1741  054F AF           	xor a
1742  0550 DD 77 06     	ld (ix+6),a ;флаг результат приёма
1743  0553 DD 77 05     	ld (ix+5),a ;флаг запрос на приём
1744  0556 C9           	ret
1745  0557
1746  0557              esp_send_err
1747  0557 3E FF        	ld a,255
1748  0559 37           	scf
1749  055A C9           	ret
1750  055B
1751  055B
1752  055B
1753  055B
1754  055B              ;вх: hl - адрес для данных
1755  055B              ;вых: CY=0 - OK; CY=1 - занято другим процессом или нет uart
1756  055B              ;вых: ix - адрес в таблице соединений (ix+6 - флаг =1 - принято)
1757  055B              esp_get ;получить пакет ESP (+IPD);
1758  055B CD 7B 05     	call esp_check_err
1759  055E D8           	ret c
1760  055F DD 75 07     	ld (ix+7),l ;адрес данных
1761  0562 DD 74 08     	ld (ix+8),h ;адрес данных
1762  0565 DD 36 06 00  	ld (ix+6),0 ;флаг результат приёма
1763  0569 DD 36 05 01  	ld (ix+5),1 ;флаг запрос на приём
1764  056D AF           	xor a
1765  056E DD 77 04     	ld (ix+4),a ;флаг результат отправки
1766  0571 DD 77 03     	ld (ix+3),a ;флаг запрос отправки
1767  0574 DD 77 09     	ld (ix+9),a  ;длина
1768  0577 DD 77 0A     	ld (ix+10),a
1769  057A C9           	ret
1770  057B
1771  057B              ;проверка есть ли порт и кто владелец в данный момент
1772  057B              esp_check_err
1773  057B DD 21 80 35  	ld ix,esp_link_id_table
1774  057F 3A 02 2C     	ld a,(uart_enable)
1775  0582 B7           	or a
1776  0583 28 0F        	jr z,esp_check_err1 ;нет порта
1777  0585 DD 7E 00     	ld a,(ix)
1778  0588 B7           	or a
1779  0589 C8           	ret z ;выход без ошибки, если никем не занят
1780  058A 3A 23 2C     	ld a,(proc_id_cur) ;проверить кто владелец соединения
1781  058D DD BE 00     	cp (ix)
1782  0590 20 02        	jr nz,esp_check_err1 ;выйти с ошибкой, если буфер занят другим
1783  0592 AF           	xor a
1784  0593 C9           	ret
1785  0594              esp_check_err1
1786  0594 3E FF        	ld a,255
1787  0596 37           	scf
1788  0597 C9           	ret
1789  0598
1790  0598
1791  0598
1792  0598              ;прочитать байт из порта uart
1793  0598              ;вх:
1794  0598              ;вых: CY=0 - OK; CY=1 - занято другим процессом или нет uart или нет данных для приёма
1795  0598              ;вых: A - считанный байт
1796  0598              uart_read ;
1797  0598 CD 7B 05     	call esp_check_err
1798  059B D8           	ret c
1799  059C              	;прочитать сразу, не через сетевой процесс
1800  059C 3E FD            ld a, Uart.LSR
1801  059E DB EF            in a, (uart_port)
1802  05A0 0F               rrca
1803  05A1 30 06        	jr nc,uart_read_err
1804  05A3 3E F8            ld a, Uart.RBR_THR
1805  05A5 DB EF            in a, (uart_port)
1806  05A7 B7           	or a ;сбросить флаг
1807  05A8 C9           	ret
1808  05A9              uart_read_err
1809  05A9 AF           	xor a
1810  05AA 37           	scf
1811  05AB C9           	ret
1812  05AC
1813  05AC
1814  05AC              ;записать байт в порт uart
1815  05AC              ;вх: A -байт
1816  05AC              ;вых: CY=0 - OK; CY=1 - занято другим процессом или нет uart
1817  05AC              uart_write ;
1818  05AC 08           	ex af,af'
1819  05AD CD 7B 05     	call esp_check_err
1820  05B0 D8           	ret c
1821  05B1              	;записать
1822  05B1 3E FD        	ld a, Uart.LSR
1823  05B3 DB EF            in a, (uart_port)
1824  05B5 E6 20            and #20
1825  05B7 28 09            jr z,uart_write_err ;порт не готов
1826  05B9 08               ex af,af'
1827  05BA 06 F8        	ld b, Uart.RBR_THR
1828  05BC 0E EF        	ld c, uart_port
1829  05BE ED 79            out (c), a
1830  05C0 B7           	or a ;сбросить флаг
1831  05C1 C9           	ret
1832  05C2              uart_write_err
1833  05C2 37           	scf
1834  05C3 C9           	ret
1835  05C4
1836  05C4
1837  05C4              ;вх: a - id процесса куда копировать, hl - откуда, de - куда, bc - длина
1838  05C4              esp_buffer_copy ;скопировать принятое из буфера ESP
1839  05C4 D9           	exx
1840  05C5 21 00 2C     	ld hl,proc_table-256 ;проверка активен ли заданный процесс
1841  05C8 84           	add h
1842  05C9 67           	ld h,a
1843  05CA AF           	xor a
1844  05CB B6           	or (hl)
1845  05CC C8           	ret z
1846  05CD
1847  05CD E5           	push hl
1848  05CE DD E1        	pop ix ;дескриптор процесса
1849  05D0              	;включить страницы целевого процесса
1850  05D0 DD 7E 02     	ld a,(ix+2)
1851  05D3 CD 5D 0C     	call drvgmx.PageSlot2
1852  05D6 DD 7E 03     	ld a,(ix+3)
1853  05D9 CD 7C 0B     	call drvgmx.PageSlot3
1854  05DC D9           	exx
1855  05DD
1856  05DD ED B0        	ldir
1857  05DF
1858  05DF              	;вернуть страницы
1859  05DF C3 D1 02     	jp page_cur_return
1860  05E2
1861  05E2
1862  05E2
1863  05E2
1864  05E2              ;вх: hl - откуда de - куда
1865  05E2              copyZ ;копировать данные до кода 0
1866  05E2 7E           	ld a,(hl)
1867  05E3 B7           	or a
1868  05E4 28 04        	jr z,copyZ_ex
1869  05E6 ED A0        	ldi
1870  05E8 18 F8        	jr copyZ
1871  05EA              copyZ_ex
1872  05EA AF           	xor a
1873  05EB 12           	ld (de),a  ;в конце 0
1874  05EC C9           	ret
1875  05ED
1876  05ED
1877  05ED
1878  05ED              toDecimal		;конвертирует 2 байта в 5 десятичных цифр
1879  05ED              				;на входе в HL число
1880  05ED 11 10 27     			ld de,10000 ;десятки тысяч
1881  05F0 3E FF        			ld a,255
1882  05F2              toDecimal10k
1883  05F2 A7           			and a
1884  05F3 ED 52        			sbc hl,de
1885  05F5 3C           			inc a
1886  05F6 30 FA        			jr nc,toDecimal10k
1887  05F8 19           			add hl,de
1888  05F9 C6 30        			add a,48
1889  05FB 32 43 06     			ld (decimalS),a
1890  05FE 11 E8 03     			ld de,1000 ;тысячи
1891  0601 3E FF        			ld a,255
1892  0603              toDecimal1k
1893  0603 A7           			and a
1894  0604 ED 52        			sbc hl,de
1895  0606 3C           			inc a
1896  0607 30 FA        			jr nc,toDecimal1k
1897  0609 19           			add hl,de
1898  060A C6 30        			add a,48
1899  060C 32 44 06     			ld (decimalS+1),a
1900  060F 11 64 00     			ld de,100 ;сотни
1901  0612 3E FF        			ld a,255
1902  0614              toDecimal01k
1903  0614 A7           			and a
1904  0615 ED 52        			sbc hl,de
1905  0617 3C           			inc a
1906  0618 30 FA        			jr nc,toDecimal01k
1907  061A 19           			add hl,de
1908  061B C6 30        			add a,48
1909  061D 32 45 06     			ld (decimalS+2),a
1910  0620 11 0A 00     			ld de,10 ;десятки
1911  0623 3E FF        			ld a,255
1912  0625              toDecimal001k
1913  0625 A7           			and a
1914  0626 ED 52        			sbc hl,de
1915  0628 3C           			inc a
1916  0629 30 FA        			jr nc,toDecimal001k
1917  062B 19           			add hl,de
1918  062C C6 30        			add a,48
1919  062E 32 46 06     			ld (decimalS+3),a
1920  0631 11 01 00     			ld de,1 ;единицы
1921  0634 3E FF        			ld a,255
1922  0636              toDecimal0001k
1923  0636 A7           			and a
1924  0637 ED 52        			sbc hl,de
1925  0639 3C           			inc a
1926  063A 30 FA        			jr nc,toDecimal0001k
1927  063C 19           			add hl,de
1928  063D C6 30        			add a,48
1929  063F 32 47 06     			ld (decimalS+4),a
1930  0642
1931  0642 C9           			ret
1932  0643 00 00 00...  decimalS ds 6 ;здесь будет цифра
1933  0649
1934  0649
1935  0649
1936  0649
1937  0649              ;передача управления ОС до следующего прерывания;
1938  0649              os_wait ;
1939  0649 F5           	push af
1940  064A C5           	push bc
1941  064B D5           	push de
1942  064C E5           	push hl
1943  064D D9           	exx
1944  064E 08           	ex af,af'
1945  064F F5           	push af
1946  0650 C5           	push bc
1947  0651 D5           	push de
1948  0652 E5           	push hl
1949  0653 DD E5        	push ix
1950  0655 FD E5        	push iy
1951  0657 ED 73 0A 2C  	ld (proc_stack_addr_tmp_wait),sp ;запомнить адрес стека
1952  065B 3E 01        	ld a,1
1953  065D 32 0C 2C     	ld (os_wait_flag),a ;флаг внеочередная смена процесса
1954  0660 3A 23 2C     	ld a,(proc_id_cur)
1955  0663 CD D3 06     	call get_proc_descr
1956  0666 DD 36 1D 01  	ld (ix+#1d),1 ;флаг что процесс запросил os_wait
1957  066A C3 B2 08     	jp proc_next_wait ;на следующий процесс
1958  066D
1959  066D
1960  066D
1961  066D              ;закрыть процесс
1962  066D              ;вх: A - ID процесса. Если A=0, закрыть текущий (себя)
1963  066D              ;останавливается процесс и освобождаются все его страницы памяти, файлы, соединения
1964  066D              proc_close
1965  066D B7           	or a
1966  066E 20 03        	jr nz,proc_close_skip
1967  0670 3A 23 2C     	ld a,(proc_id_cur) ;текущий
1968  0673              proc_close_skip
1969  0673 FE 09        	cp proc_max+1 ;защита
1970  0675 D0           	ret nc
1971  0676 32 D2 06     	ld (proc_close_id_tmp),a ;запомнить
1972  0679
1973  0679 21 07 2C     	ld hl,proc_id_focus ;если он был в фокусе
1974  067C BE           	cp (hl)
1975  067D 20 05        	jr nz,proc_close_skip3
1976  067F 3E 01        	ld a,1
1977  0681 CD 3D 02     	call proc_set_focus ;сменить фокус на системный процесс
1978  0684
1979  0684              proc_close_skip3
1980  0684              ;очистить таблицу процессов
1981  0684 3A D2 06     	ld a,(proc_close_id_tmp)
1982  0687 CD D3 06     	call get_proc_descr
1983  068A 54           	ld d,h
1984  068B 5D           	ld e,l
1985  068C 13           	inc de
1986  068D 36 00        	ld (hl),0
1987  068F 01 FF 00     	ld bc,proc_descr_size-1
1988  0692 ED B0        	ldir
1989  0694
1990  0694              ;очистить таблицу памяти
1991  0694 3A D2 06     	ld a,(proc_close_id_tmp)
1992  0697 CD 1D 02     	call proc_clear_ram
1993  069A
1994  069A              ;очистить таблицу файлов FAT
1995  069A 3A D2 06     	ld a,(proc_close_id_tmp)
1996  069D CD 92 0E     	call Dos.fclose_proc_all
1997  06A0
1998  06A0              ;очистить таблицу соединений ESP
1999  06A0 3A D2 06     	ld a,(proc_close_id_tmp)
2000  06A3 21 80 35     	ld hl,esp_link_id_table
2001  06A6 BE           	cp (hl) ;id процесса совпадает?
2002  06A7 20 0A        	jr nz,proc_close_skip2
2003  06A9 54           	ld d,h
2004  06AA 5D           	ld e,l
2005  06AB 13           	inc de
2006  06AC 01 3F 00     	ld bc,esp_link_id_table_size_item-1
2007  06AF 36 00        	ld (hl),0 ;очистить
2008  06B1 ED B0        	ldir
2009  06B3              proc_close_skip2
2010  06B3
2011  06B3              ;остановить плеер
2012  06B3 3A D2 06     	ld a,(proc_close_id_tmp)
2013  06B6 21 03 2C     	ld hl,proc_play_ay
2014  06B9 BE           	cp (hl)
2015  06BA 20 03        	jr nz,proc_close_skip4
2016  06BC CD 7C 04     	call set_VTPL_MUTE
2017  06BF
2018  06BF              proc_close_skip4
2019  06BF              ;выключить режим моно
2020  06BF 21 1F 2C     	ld hl,mono_mode_id
2021  06C2 BE           	cp (hl)
2022  06C3 20 02        	jr nz,proc_close_skip5
2023  06C5 AF           	xor a
2024  06C6 77           	ld (hl),a
2025  06C7
2026  06C7              proc_close_skip5
2027  06C7              ;выход
2028  06C7 3A D2 06     	ld a,(proc_close_id_tmp)
2029  06CA 21 23 2C     	ld hl,proc_id_cur
2030  06CD BE           	cp (hl)
2031  06CE C0           	ret nz ;выйти если вызывал не сам процесс
2032  06CF
2033  06CF C3 49 06     	jp os_wait ;если вызывал закрытие сам процесс, то сразу переключиться на следующий
2034  06D2 00           proc_close_id_tmp db 0 ;временно
2035  06D3
2036  06D3
2037  06D3
2038  06D3
2039  06D3
2040  06D3              ;получить дескриптор процесса (адрес в таблице процессов)
2041  06D3              ;вх: A - id процесса
2042  06D3              ;вых: HL, IX - дескриптор
2043  06D3              get_proc_descr
2044  06D3 21 00 2C     	ld hl,proc_table - 256
2045  06D6 84           	add h
2046  06D7 67           	ld h,a
2047  06D8 E5           	push hl
2048  06D9 DD E1        	pop ix ;дескриптор
2049  06DB C9           	ret
2050  06DC
2051  06DC
2052  06DC              ;освободить страницу памяти
2053  06DC              ;вх: a - номер страницы
2054  06DC              proc_del_ram
2055  06DC 21 DD 0B     	ld hl,drvgmx.page_table ;таблица возможных вариантов с номерами страниц
2056  06DF 06 6D        	ld b,page_max ;цикл сколько всего страниц в таблице
2057  06E1 0E 00        	ld c,0 ;счётчик
2058  06E3              proc_del_ram_cl ;
2059  06E3 BE           	cp (hl) ;совпадает с номером страницы?
2060  06E4 20 10        	jr nz,proc_del_ram1
2061  06E6 21 00 35     	ld hl,proc_page_table
2062  06E9 06 00        	ld b,0
2063  06EB 09           	add hl,bc ;адрес записи
2064  06EC 3A 23 2C     	ld a,(proc_id_cur)
2065  06EF BE           	cp (hl)
2066  06F0 20 08        	jr nz,proc_del_ram_err ;если чужая страница
2067  06F2 36 00        	ld (hl),0 ;освободить
2068  06F4 B7           	or a
2069  06F5 C9           	ret
2070  06F6
2071  06F6              proc_del_ram1
2072  06F6 23           	inc hl
2073  06F7 0C           	inc c
2074  06F8 10 E9        	djnz proc_del_ram_cl
2075  06FA              proc_del_ram_err
2076  06FA 37           	scf ;не нашли страницы
2077  06FB C9           	ret
2078  06FC
2079  06FC
2080  06FC
2081  06FC              ;включить/выключить моно режим для приложения
2082  06FC              ;вх: a = 0 - включить; a = 255 - выключить
2083  06FC              set_mono_mode
2084  06FC B7           	or a
2085  06FD 28 0D        	jr z,set_mono_mode_on
2086  06FF              	;выключить
2087  06FF 3A 23 2C     	ld a,(proc_id_cur) ;проверка что этим процессом было занято
2088  0702 21 1F 2C     	ld hl,mono_mode_id
2089  0705 BE           	cp (hl)
2090  0706 20 12        	jr nz,set_mono_mode_err
2091  0708 AF           	xor a
2092  0709 36 00        	ld (hl),0
2093  070B C9           	ret
2094  070C
2095  070C              set_mono_mode_on
2096  070C              	;включить
2097  070C 3A 1F 2C     	ld a,(mono_mode_id)
2098  070F B7           	or a
2099  0710 20 08        	jr nz,set_mono_mode_err ;кем-то занято
2100  0712
2101  0712 3A 23 2C     	ld a,(proc_id_cur)
2102  0715 32 1F 2C     	ld (mono_mode_id),a
2103  0718 AF           	xor a
2104  0719 C9           	ret
2105  071A
2106  071A              set_mono_mode_err
2107  071A 37           	scf
2108  071B C9           	ret
2109  071C
2110  071C
2111  071C
2112  071C
2113  071C
2114  071C
2115  071C
2116  071C
2117  071C              ;выбор функции (вызова)
2118  071C              function
2119  071C 08           	ex af,af'
2120  071D 79           	ld a,c
2121  071E FE 2B        	cp function_max ;проверка на общее количество
2122  0720 38 05        	jr c,function1
2123  0722              function_no
2124  0722 08           	ex af,af'
2125  0723 3E FF        	ld a,255 ;??????
2126  0725 37           	scf
2127  0726 C9           	ret
2128  0727              function1
2129  0727 D9           	exx
2130  0728 6F           	ld l,a
2131  0729 26 00        	ld h,0
2132  072B 29           	add hl,hl ;*2
2133  072C 01 3B 07     	ld bc,function_table
2134  072F 09           	add hl,bc
2135  0730 5E           	ld e,(hl)
2136  0731 23           	inc hl
2137  0732 56           	ld d,(hl)
2138  0733 7B           	ld a,e ;временно проверка есть ли такая функция
2139  0734 B2           	or d
2140  0735 28 EB        	jr z,function_no ;-^
2141  0737 D5           	push de
2142  0738 D9           	exx
2143  0739 08           	ex af,af'
2144  073A C9           	ret ;перейти по адресу функции
2145  073B
2146  073B
2147  073B              function_table ;таблица функций
2148  073B D9 09        	dw drvgmx.cls  ; #00 (0 dec) - очистить консоль;
2149  073D 15 0A        	dw drvgmx.gotoXY ; #01 (1 dec) - установить позицию курсора в консоли
2150  073F 8B 0A        	dw drvgmx.putC ; #02 (2 dec) - печать символа в консоль;
2151  0741 26 0A        	dw drvgmx.fillLine ; #03 (3 dec) - заполнение строки одним символом
2152  0743 40 0A        	dw drvgmx.paintLine ; #04 (4 dec) - покрасить строку цветом
2153  0745 00 00        	dw 0 ;#05 (5 dec) -
2154  0747 9D 0B        	dw drvgmx.set_color ;#06 (6 dec) - установить цвет текста в консоли
2155  0749 00 00        	dw 0 ;#07 (7 dec) - ;
2156  074B FC 06        	dw set_mono_mode ;#08 (8 dec) - включить/выключить моно режим для приложения
2157  074D 80 0A        	dw drvgmx.printZ ; #09 (9 dec) - печать в консоль до кода 0
2158  074F 98 05        	dw uart_read ;#0A (10 dec) - прочитать байт из порта uart
2159  0751 AC 05        	dw uart_write ;#0B (11 dec) - записать байт в порт uart
2160  0753 2D 05        	dw esp_close ;#0C (12 dec) - закрыть соединение ESP
2161  0755 F6 04        	dw esp_open ;#0D (13 dec) - установить соединение ESP (CIPSTART);
2162  0757 36 05        	dw esp_send ;#0E (14 dec) - послать запрос ESP (CIPSEND);
2163  0759 5B 05        	dw esp_get ;#0F (15 dec) - получить пакет ESP (+IPD);
2164  075B DD 03        	dw get_c ;#10 (16 dec) - получить код нажатой клавиши;
2165  075D DE 02        	dw proc_run ;#11 (17 dec) - запустить процесс;
2166  075F 3D 02        	dw proc_set_focus ;#12 (18 dec) - установить фокус;
2167  0761 6D 06        	dw proc_close ;#13 (19 dec)-закрыть процесс;
2168  0763 E7 04        	dw set_interrupt ;#14 (20 dec) - установка адреса обработчика прерываний процесса;
2169  0765 7F 17        	dw VTPL.INIT ;#15 (21 dec) - инициализация плеера AY;
2170  0767 69 04        	dw set_VTPL_PLAY ;#16 (22 dec) - запустить плеер AY;
2171  0769 7C 04        	dw set_VTPL_MUTE ;#17 (23 dec) - заглушить плеер AY;
2172  076B 83 04        	dw get_VTPL_SETUP ;#18 (24 dec) - получить значение переменной плеера;
2173  076D FA 03        	dw page_copy ;#19 (25 dec) - скопировать данные из страницы в страницу
2174  076F FE 01        	dw proc_get_ram ;#1A (26 dec) - получить дополнительную страницу памяти;
2175  0771 BD 04        	dw set_page_slot2 ;#1B (27 dec) - включить страницу в слот 2 (#8000);
2176  0773 D2 04        	dw set_page_slot3 ;#1C (28 dec) - включить страницу в слот 3 (#c000);
2177  0775 90 04        	dw set_scr ;#1D (29 dec) - включить экран N;
2178  0777 87 04        	dw get_proc_page ;#1E (30 dec) - получить номера страниц процесса;
2179  0779 F2 03        	dw get_timer ;#1F (31 dec) - получить значение системного таймера
2180  077B DC 06        	dw proc_del_ram ;#20 (32 dec) - освободить страницу памяти
2181  077D F0 0C        	dw Dos.fopen_r ;#21 (33 dec) - открыть файл для чтения или записи;
2182  077F 13 0D        	dw Dos.fopen_c ;#22 (34 dec) - создать файл;
2183  0781 A9 0E        	dw Dos.fread ;#23 (35 dec) - прочитать из файла;
2184  0783 C1 0E        	dw Dos.fwrite ;#24 (36 dec) - записать в файл;
2185  0785 6F 0E        	dw Dos.fclose ;#25 (37 dec) - закрыть файл;
2186  0787 03 0F        	dw Dos.read_dir ;#26 (38 dec) - чтение секторов текущего каталога
2187  0789 18 0F        	dw Dos.open_dir ;#27 (39 dec) - вход в каталог/выход в родительский каталог
2188  078B 3F 0F        	dw Dos.file_position ;#28 (40 dec) - установка/чтение указателя в файле
2189  078D 6B 0F        	dw Dos.find_path ;#29 (41 dec) - ; поиск файла или каталога по заданному пути, начиная от корневого, со входом в подкаталоги
2190  078F 86 0F        	dw Dos.get_LFN ;#2a (42 dec) - ; получение длинного имени файла
2191  0791
2192  0791
2193  0791 00 00 00...  	align 16
2194  07A0              ;обработчик прерываний
2195  07A0              Interrupts
2196  07A0 F3           	di
2197  07A1 E3           	ex (sp),hl
2198  07A2 22 0E 2C     	ld (proc_stack_addr_return_tmp),hl ;запомнить откуда вызвали прерывание
2199  07A5 E3           	ex (sp),hl
2200  07A6 F5           	push af
2201  07A7 C5           	push bc
2202  07A8 D5           	push de
2203  07A9 E5           	push hl
2204  07AA D9           	exx
2205  07AB 08           	ex af,af'
2206  07AC F5           	push af
2207  07AD C5           	push bc
2208  07AE D5           	push de
2209  07AF E5           	push hl
2210  07B0 DD E5        	push ix
2211  07B2 FD E5        	push iy
2212  07B4 ED 73 08 2C  	ld (proc_stack_addr_tmp),sp ;запомнить адрес стека
2213  07B8              	; ld a,1
2214  07B8              	; out (254),a
2215  07B8
2216  07B8 3E 01        	ld a,1
2217  07BA 32 01 2C     	ld (Interrupt_new_flag),a ;флаг что было новое прерывание
2218  07BD              	;сбросить флаги os_wait, потому что произошло обычное прерывание
2219  07BD AF           	xor a
2220  07BE 21 1D 2D     	ld hl,proc_table+#1d
2221  07C1 77           	ld (hl),a
2222  07C2 24           	inc h
2223  07C3 77           	ld (hl),a
2224  07C4 24           	inc h
2225  07C5 77           	ld (hl),a
2226  07C6 24           	inc h
2227  07C7 77           	ld (hl),a
2228  07C8 24           	inc h
2229  07C9 77           	ld (hl),a
2230  07CA 24           	inc h
2231  07CB 77           	ld (hl),a
2232  07CC 24           	inc h
2233  07CD 77           	ld (hl),a
2234  07CE 24           	inc h
2235  07CF 77           	ld (hl),a
2236  07D0
2237  07D0
2238  07D0
2239  07D0              ;таймер
2240  07D0 2A 25 2C     	ld hl,(sys_timer)
2241  07D3 23           	inc hl
2242  07D4 22 25 2C     	ld (sys_timer),hl
2243  07D7 7C           	ld a,h
2244  07D8 B5           	or l
2245  07D9 20 07        	jr nz,Interrupts_timer
2246  07DB 2A 27 2C     	ld hl,(sys_timer+2)
2247  07DE 23           	inc hl
2248  07DF 22 27 2C     	ld (sys_timer+2),hl
2249  07E2              Interrupts_timer
2250  07E2
2251  07E2
2252  07E2              ;опрос клавиатуры
2253  07E2 CD 30 14     	call @DriverKeyboard
2254  07E5 22 15 2C     	ld (FlgScanKeys_addr),hl ;адрес переменной
2255  07E8 CB 76        	bit 6,(hl)
2256  07EA 20 03        	jr nz,Interrupts_key1 ;если не нажата ни одна
2257  07EC 32 1D 2C     	ld (key_cur),a ;запомнить клавишу
2258  07EF              Interrupts_key1
2259  07EF
2260  07EF FE 1B        	cp proc_switch_key ;если клавиша переключения задач
2261  07F1 20 03        	jr nz,Interrupts_key_switch_no
2262  07F3 32 10 2C     	ld (key_proc_switch_flag),a ;сохранить нажатие
2263  07F6              Interrupts_key_switch_no
2264  07F6
2265  07F6 FE 07        	cp DrvKey.keyEdit
2266  07F8 20 05        	jr nz,Interrupts_key2
2267  07FA              	;переключение языка
2268  07FA 32 11 2C     	ld (key_lang_flag),a
2269  07FD 18 17        	jr Interrupts_key_ex
2270  07FF              Interrupts_key2
2271  07FF FE 06        	cp DrvKey.keyCaps
2272  0801 20 05        	jr nz,Interrupts_key3
2273  0803              	;переключение заглавных
2274  0803 32 12 2C     	ld (key_caps_lock_switch_flag),a
2275  0806 18 0E        	jr Interrupts_key_ex
2276  0808              Interrupts_key3
2277  0808 FE 0F        	cp DrvKey.keyDelete
2278  080A 20 03        	jr nz,Interrupts_key4
2279  080C              	;графическая
2280  080C 32 13 2C     	ld (key_graph_flag),a
2281  080F
2282  080F              Interrupts_key4
2283  080F FE 12        	cp 18
2284  0811 20 03        	jr nz,Interrupts_key_ex
2285  0813              	;sys процесс в фокус
2286  0813 32 14 2C     	ld (key_sys_focus),a
2287  0816
2288  0816
2289  0816
2290  0816              Interrupts_key_ex
2291  0816              	;с клавиатурой всё
2292  0816
2293  0816
2294  0816
2295  0816
2296  0816
2297  0816              ;определить текущие страницы памяти
2298  0816 01 FD 7A     	ld bc,#7AFD
2299  0819 ED 78        	in a,(c)
2300  081B E6 7F        	and %01111111
2301  081D 32 D5 09     	ld (Interrupts_cur_page_slot3),a
2302  0820 01 FD 78     	ld bc,#78fd
2303  0823 ED 78        	in a,(c)
2304  0825 EE 02        	xor %00000010
2305  0827 32 D4 09     	ld (Interrupts_cur_page_slot2),a
2306  082A
2307  082A 3A 23 2C     	ld a,(proc_id_cur) ;сохранить текущий процесс
2308  082D 32 24 2C     	ld (proc_id_cur_tmp),a
2309  0830 ED 4B 17 2C  	ld bc,(page_slot2_cur) ;две переменные текущие страницы
2310  0834 ED 43 19 2C  	ld (page_slot2_cur_tmp),bc
2311  0838
2312  0838
2313  0838
2314  0838
2315  0838              ;плеер музыки и прочие неотложные процессы
2316  0838 3A 03 2C     	ld a,(proc_play_ay)
2317  083B B7           	or a
2318  083C 28 0F        	jr z,Interrupts_ay_skip
2319  083E 3A 04 2C     	ld a,(proc_play_ay_slot2) ;страницы с музыкой
2320  0841 CD 5D 0C     	call drvgmx.PageSlot2
2321  0844 3A 05 2C     	ld a,(proc_play_ay_slot3) ;страницы с музыкой
2322  0847 CD 7C 0B     	call drvgmx.PageSlot3
2323  084A CD A2 1F     	call VTPL.PLAY ;играть
2324  084D
2325  084D
2326  084D              Interrupts_ay_skip
2327  084D
2328  084D              	;проверить обработчики прерываний всех процессов
2329  084D 3E 01        	ld a,1 ;первый
2330  084F CD D3 06     	call get_proc_descr ;узнать адрес дескриптора
2331  0852 06 08        	ld b,proc_max ;цикл всего процессов
2332  0854              Interrupts_proc_cl
2333  0854 AF           	xor a
2334  0855 DD B6 00     	or (ix+#00) ;рабочий процесс?
2335  0858 28 32        	jr z,Interrupts_proc_cl_skip
2336  085A
2337  085A DD 7E 0E     	ld a,(ix+#0e) ;адрес
2338  085D DD B6 0F     	or (ix+#0f) ;адрес
2339  0860              	;задан адрес прерываний?
2340  0860 28 2A        	jr z,Interrupts_proc_cl_skip
2341  0862
2342  0862              	;вызов обработчика
2343  0862 DD E5        	push ix
2344  0864 C5           	push bc
2345  0865
2346  0865 DD 7E 00     	ld a,(ix+#00)
2347  0868 32 23 2C     	ld (proc_id_cur),a ;временно установить номер процесса
2348  086B
2349  086B DD 7E 02     	ld a,(ix+#02) ;страницы процесса
2350  086E 32 17 2C     	ld (page_slot2_cur),a
2351  0871 CD 5D 0C     	call drvgmx.PageSlot2
2352  0874 DD 7E 03     	ld a,(ix+#03) ;страницы процесса
2353  0877 32 18 2C     	ld (page_slot3_cur),a
2354  087A CD 7C 0B     	call drvgmx.PageSlot3
2355  087D 21 89 08     	ld hl,Interrupts_proc_cl_ret
2356  0880 E5           	push hl ;адрес возврата
2357  0881 DD 6E 0E     	ld l,(ix+#0e) ;адрес
2358  0884 DD 66 0F     	ld h,(ix+#0f) ;адрес
2359  0887 E5           	push hl ;адрес очередного обработчика
2360  0888 C9           	ret ;запустить
2361  0889
2362  0889              Interrupts_proc_cl_ret
2363  0889 C1           	pop bc
2364  088A DD E1        	pop ix
2365  088C
2366  088C              Interrupts_proc_cl_skip
2367  088C DD 24        	inc ixh ;следующий
2368  088E 10 C4        	djnz Interrupts_proc_cl
2369  0890
2370  0890
2371  0890              ;вернуть страницы
2372  0890 3A D4 09     	ld a,(Interrupts_cur_page_slot2)
2373  0893 CD 5D 0C     	call drvgmx.PageSlot2
2374  0896 3A D5 09     	ld a,(Interrupts_cur_page_slot3)
2375  0899 CD 7C 0B     	call drvgmx.PageSlot3
2376  089C
2377  089C 3A 24 2C     	ld a,(proc_id_cur_tmp) ;вернуть текущий процесс
2378  089F 32 23 2C     	ld (proc_id_cur),a
2379  08A2 ED 4B 19 2C  	ld bc,(page_slot2_cur_tmp) ;две переменные текущие страницы
2380  08A6 ED 43 17 2C  	ld (page_slot2_cur),bc
2381  08AA
2382  08AA
2383  08AA
2384  08AA              ;многозадачность тут
2385  08AA 3A 0F 2C     	ld a,(proc_stack_addr_return_tmp+1) ;узнать адрес откуда были прерывания
2386  08AD FE 40        	cp #40 ;если прерывание было в области пзу, значит работала система
2387  08AF DA 51 09     	jp c,Interrupts_ex ;пропустим переключения на другие задачи
2388  08B2
2389  08B2              proc_next_wait	;сюда приходит после вызова OS_WAIT, мимо обработки прерывания по INT
2390  08B2 CD 67 09     	call proc_next_find
2391  08B5              	;jp c,Interrupts_ex ;если процесс один, то на выход
2392  08B5
2393  08B5              	; push hl ;дескриптор следующего
2394  08B5              	; pop ix
2395  08B5
2396  08B5
2397  08B5              	;запомнить стек предыдущего (текущего) процесса
2398  08B5 3A 23 2C     	ld a,(proc_id_cur)
2399  08B8 21 00 2C     	ld hl,proc_table - 256
2400  08BB 84           	add h
2401  08BC 67           	ld h,a
2402  08BD E5           	push hl
2403  08BE FD E1        	pop iy ;дескриптор предыдущего
2404  08C0
2405  08C0 01 06 00     	ld bc,6
2406  08C3 09           	add hl,bc
2407  08C4 ED 4B 08 2C  	ld bc,(proc_stack_addr_tmp)
2408  08C8 3A 0C 2C     	ld a,(os_wait_flag)
2409  08CB B7           	or a
2410  08CC 28 08        	jr z,proc_next_wait_no
2411  08CE ED 4B 0A 2C  	ld bc,(proc_stack_addr_tmp_wait) ;если в режиме вызова os_wait
2412  08D2 AF           	xor a
2413  08D3 32 0C 2C     	ld (os_wait_flag),a
2414  08D6              proc_next_wait_no
2415  08D6 71           	ld (hl),c
2416  08D7 23           	inc hl
2417  08D8 70           	ld (hl),b
2418  08D9
2419  08D9              	;запомнить координаты экрана предыдущего
2420  08D9 2A 99 0C     	ld hl,(drvgmx.col_screen)
2421  08DC FD 75 0A FD  	ld (iy+#0a),hl ;координаты
2421  08E0 74 0B
2422  08E2
2423  08E2 2A 9B 0C     	ld hl,(drvgmx.attr_screen)
2424  08E5 FD 75 0C FD  	ld (iy+#0c),hl ;атрибуты (цвет текста)
2424  08E9 74 0D
2425  08EB
2426  08EB 2A 6D 0B     	ld hl,(drvgmx.curscrl)
2427  08EE FD 75 08 FD  	ld (iy+#08),hl ;позиция скрола
2427  08F2 74 09
2428  08F4
2429  08F4
2430  08F4
2431  08F4              	;следующий
2432  08F4 DD 7E 02     	ld a,(ix+2)
2433  08F7 32 17 2C     	ld (page_slot2_cur),a ;сделать страницы текущими
2434  08FA CD 5D 0C     	call drvgmx.PageSlot2
2435  08FD DD 7E 03     	ld a,(ix+3)
2436  0900 32 18 2C     	ld (page_slot3_cur),a
2437  0903 CD 7C 0B     	call drvgmx.PageSlot3
2438  0906
2439  0906
2440  0906              	;параметры экрана (консоли)
2441  0906 DD 6E 0A DD  	ld hl,(ix+#0a) ;координаты
2441  090A 66 0B
2442  090C 22 99 0C     	ld (drvgmx.col_screen),hl
2443  090F
2444  090F DD 6E 0C DD  	ld hl,(ix+#0c) ;атрибуты (цвет текста)
2444  0913 66 0D
2445  0915 22 9B 0C     	ld (drvgmx.attr_screen),hl
2446  0918
2447  0918 DD 6E 08 DD  	ld hl,(ix+#08) ;позиция скрола
2447  091C 66 09
2448  091E 22 6D 0B     	ld (drvgmx.curscrl),hl
2449  0921
2450  0921
2451  0921
2452  0921 3A 07 2C     	ld a,(proc_id_focus) ;если это процесс в фокусе
2453  0924 DD BE 00     	cp (ix)
2454  0927 20 0C        	jr nz,proc_next_no_focus
2455  0929 3E 39        	ld a,con_scr_real ;экран реальный для драйвера
2456  092B 32 1B 2C     	ld (con_scr_cur),a
2457  092E 3E 79        	ld a,con_atr_real ;атрибуты реальные
2458  0930 32 1C 2C     	ld (con_atr_cur),a
2459  0933 18 0C        	jr proc_next2
2460  0935              proc_next_no_focus
2461  0935              	;если не в фокусе
2462  0935 DD 7E 04     	ld a,(ix+4) ;пиксели
2463  0938 32 1B 2C     	ld (con_scr_cur),a
2464  093B DD 7E 05     	ld a,(ix+5) ;атрибуты
2465  093E 32 1C 2C     	ld (con_atr_cur),a
2466  0941              proc_next2
2467  0941 DD 6E 06     	ld l,(ix+6) ;стек
2468  0944 DD 66 07     	ld h,(ix+7) ;стек
2469  0947 F9           	ld sp,hl
2470  0948
2471  0948 3A 20 2C     	ld a,(proc_id_next)
2472  094B 32 23 2C     	ld (proc_id_cur),a ;сменить текущий
2473  094E
2474  094E CD 64 0B     	call drvgmx.gmxscroll ;обновить скролл
2475  0951
2476  0951              Interrupts_ex
2477  0951 AF           	xor a
2478  0952 D3 FE        	out (254),a
2479  0954 32 01 2C     	ld (Interrupt_new_flag),a ;флаг что было прерывание убрать
2480  0957 FD E1        	pop iy
2481  0959 DD E1        	pop ix
2482  095B E1           	pop hl
2483  095C D1           	pop de
2484  095D C1           	pop bc
2485  095E F1           	pop af
2486  095F D9           	exx
2487  0960 08           	ex af,af
2488  0961 E1           	pop hl
2489  0962 D1           	pop de
2490  0963 C1           	pop bc
2491  0964 F1           	pop af
2492  0965 FB           	ei
2493  0966 C9           	ret
2494  0967
2495  0967
2496  0967              	;поиск следующей задачи
2497  0967              	;вых: hl, ix - дескриптор следующего процесса
2498  0967              proc_next_find
2499  0967 3A 01 2C     	ld a,(Interrupt_new_flag) ;флаг только что было прерывание
2500  096A B7           	or a
2501  096B 28 14        	jr z,proc_next_find_no_interrupt
2502  096D              	;тут попытка первым после прерывания запустить процесс в фокусе
2503  096D 3A 00 2C     	ld a,(proc_next_find_focus_flag)
2504  0970 B7           	or a
2505  0971 20 0E        	jr nz,proc_next_find_no_interrupt ;пропустить, если уже запускали недавно, по всем процессам не прошлись
2506  0973 3A 07 2C     	ld a,(proc_id_focus)
2507  0976 32 00 2C     	ld (proc_next_find_focus_flag),a ;флаг что процесс в фокусе уже запускали
2508  0979 32 20 2C     	ld (proc_id_next),a
2509  097C CD D3 06     	call get_proc_descr ;получить дескриптор
2510  097F B7           	or a
2511  0980 C9           	ret ;запустить его
2512  0981
2513  0981              proc_next_find_no_interrupt
2514  0981 3A 20 2C     	ld a,(proc_id_next) ;узнать следующий
2515  0984              proc_next_find_skip
2516  0984 3C           	inc a
2517  0985 FE 09        	cp proc_max+1
2518  0987 38 02        	jr c,proc_next_find1
2519  0989 3E 01        	ld a,proc_id_system
2520  098B              proc_next_find1
2521  098B 32 20 2C     	ld (proc_id_next),a
2522  098E
2523  098E CD D3 06     	call get_proc_descr ;получить дескриптор
2524  0991
2525  0991 DD 7E 00     	ld a,(ix)
2526  0994 B7           	or a ;нет активного процесса?
2527  0995 28 D0        	jr z,proc_next_find ;искать дальше
2528  0997
2529  0997 3A 07 2C     	ld a,(proc_id_focus)
2530  099A DD BE 00     	cp (ix)
2531  099D 20 04        	jr nz,proc_next_find2 ;если не в фокусе
2532  099F AF           	xor a ;сбросить флаг, все процессы по кругу прошли
2533  09A0 32 00 2C     	ld (proc_next_find_focus_flag),a
2534  09A3
2535  09A3              proc_next_find2
2536  09A3 DD 7E 00     	ld a,(ix)
2537  09A6 FE 01        	cp 1 ;системный процесс? для него исключение, можно вызывать всегда
2538  09A8 C8           	ret z
2539  09A9
2540  09A9 3A 07 2C     	ld a,(proc_id_focus)
2541  09AC DD BE 00     	cp (ix)	;если в фокусе
2542  09AF 28 B6        	jr z,proc_next_find ;искать дальше. потому что для процесса в фокусе отдельный приоритет
2543  09B1
2544  09B1
2545  09B1              	;дополнительные проверки
2546  09B1 3A 0D 2C     	ld a,(proc_next_find_skip_flag)
2547  09B4 B7           	or a
2548  09B5 20 14        	jr nz,proc_next_find_skip_flag_yep ;пропустить дополнительные
2549  09B7
2550  09B7              	;проверить было ли прерывание, чтобы не вызвать процесс второй раз
2551  09B7 DD 7E 1D     	ld a,(ix+#1d) ;флаг вызова os_wait этого процесса
2552  09BA B7           	or a
2553  09BB 20 AA        	jr nz,proc_next_find ;искать дальше
2554  09BD
2555  09BD
2556  09BD              	;проверить графический режим
2557  09BD DD 7E 1C     	ld a,(ix+#1c) ;режим
2558  09C0 B7           	or a
2559  09C1 28 08        	jr z,proc_next_find_no_graph ;не графический
2560  09C3              	;графический
2561  09C3 3A 07 2C     	ld a,(proc_id_focus)
2562  09C6 DD BE 00     	cp (ix)
2563  09C9 20 9C        	jr nz,proc_next_find ;искать дальше, если он не в фокусе
2564  09CB
2565  09CB              proc_next_find_no_graph
2566  09CB
2567  09CB              proc_next_find_skip_flag_yep
2568  09CB              	;нашли следующий процесс
2569  09CB 3A 23 2C     	ld a,(proc_id_cur)
2570  09CE BE           	cp (hl) ;если это он и был (всего один процесс)
2571  09CF 37           	scf
2572  09D0 C8           	ret z
2573  09D1 7E           	ld a,(hl) ;или вернуть id слудующего
2574  09D2 B7           	or a
2575  09D3 C9           	ret
2576  09D4
2577  09D4 00           Interrupts_cur_page_slot2 db 0 ;временно
2578  09D5 00           Interrupts_cur_page_slot3 db 0 ;временно
2579  09D6
2580  09D6
2581  09D6
2582  09D6
2583  09D6
2584  09D6              	include Drv/zsgmx.asm ;драйвер экрана и памяти
# file opened: Drv/zsgmx.asm
   1+ 09D6              COLOR=1
   2+ 09D6              ;; ZS GMX screen driver (izzx)
   3+ 09D6              	define LINE_LIMIT 80
   4+ 09D6                  module drvgmx
   5+ 09D6              hsize   equ 25 ;всего строк
   6+ 09D6              scraddr equ #c000 ;адрес экрана
   7+ 09D6              scrsize equ 16000  ;размер экрана
   8+ 09D6              scrline equ 80*8   ;размер строки в байтах
   9+ 09D6
  10+ 09D6              init:
  11+ 09D6                  ; ld hl, font_file, b, Dos.FMODE_READ
  12+ 09D6                  ; call Dos.fopen
  13+ 09D6                  ; push af
  14+ 09D6                  ; ld bc, 2048, hl, font
  15+ 09D6                  ; call Dos.fread
  16+ 09D6                  ; pop af
  17+ 09D6                  ; call Dos.fclose
  18+ 09D6              	; xor a : out (#fe), a
  19+ 09D6              	; call cls
  20+ 09D6              	; ret
  21+ 09D6 CD C1 0B     	call set_scr39 ;включить экран
  22+ 09D9              cls:
  23+ 09D9 11 00 00         ld de, 0
  23+ 09DC
  24+ 09DC ED 53 6D 0B  	ld (curscrl),de ;скролл выключить
  25+ 09E0 CD 64 0B     	call gmxscroll
  26+ 09E3 11 00 00         ld de, 0
  26+ 09E6
  27+ 09E6 CD 15 0A     	call gotoXY
  28+ 09E9                  ;ld a, 7 : call Memory.setPage
  29+ 09E9 3A 1B 2C     	ld a,(con_scr_cur) ;пиксели
  30+ 09EC CD 7C 0B     	call PageSlot3 ;включить страницу пикселей
  31+ 09EF AF               xor a
  31+ 09F0               ; out (#fe), a
  32+ 09F0 21 00 C0 11      ld hl, #c000, de, #c001, bc, 16000-1, (hl), a
  32+ 09F4 01 C0 01 7F
  32+ 09F8 3E 77
  32+ 09FA ED B0          ldir ;очистить
  33+ 09FC 3A 1C 2C     	ld a,(con_atr_cur) ;атрибуты
  34+ 09FF CD 7C 0B     	call PageSlot3 ;включить страницу атрибутов
  35+ 0A02 AF           	xor a ;ld a,(attr_screen) ;цвет
  36+ 0A03 21 00 C0 11  	ld hl, #c000, de, #c001, bc, 16000-1, (hl), a
  36+ 0A07 01 C0 01 7F
  36+ 0A0B 3E 77
  36+ 0A0D ED B0          ldir ;очистить
  37+ 0A0F              	;call gmxscron ;включить расширенный экран
  38+ 0A0F 3A 18 2C     	ld a,(page_slot3_cur)
  39+ 0A12 C3 7C 0B     	jp PageSlot3 ;вернуть страницу
  40+ 0A15                  ;jp Memory.setPage
  41+ 0A15
  42+ 0A15
  43+ 0A15              ; Set console coordinates
  44+ 0A15              ; d = row(0..23), e = column (0..79)
  45+ 0A15              gotoXY:
  46+ 0A15              	;rr e
  47+ 0A15              	; ld a, 0
  48+ 0A15              	; ld (half_tile_screen), a
  49+ 0A15 7A           	ld a,d ;проверка координаты строки
  50+ 0A16 FE 19        	cp hsize
  51+ 0A18 D0           	ret nc
  52+ 0A19 7B           	ld a,e ;проверка координаты столбца
  53+ 0A1A FE 50        	cp 80
  54+ 0A1C D0           	ret nc
  55+ 0A1D ED 53 99 0C      ld (col_screen), de
  56+ 0A21 C9               ret
  57+ 0A22
  58+ 0A22              disable:
  59+ 0A22                  ; Nothing to disable
  60+ 0A22 CD 3A 0B     	call gmxscroff ;выключить расширенный экран
  61+ 0A25 C9               ret
  62+ 0A26
  63+ 0A26              ; H - line
  64+ 0A26              ; A - char
  65+ 0A26              fillLine: ;заполнение строки одним символом
  66+ 0A26 F5               push af
  67+ 0A27 54 1E 00         ld d, h, e, 0
  67+ 0A2A CD 15 0A       call gotoXY
  68+ 0A2D F1               pop af
  69+ 0A2E 21 9F 0C 11      ld hl, fill_buff, de, fill_buff + 1, bc, 80-1, (hl), a
  69+ 0A32 A0 0C 01 4F
  69+ 0A36 00 77
  69+ 0A38 ED B0          ldir
  70+ 0A3A 21 9F 0C         ld hl, fill_buff
  70+ 0A3D C3 80 0A       jp printZ
  71+ 0A40
  72+ 0A40              paintLine: ;на входе в A номер строки, которую надо покрасить, B - цвет
  73+ 0A40 C5           	push bc
  74+ 0A41 47               ld b, a
  75+ 0A42 0E 00            ld c, 0
  76+ 0A44 CD F0 0A         call bc_to_attr
  77+ 0A47 E5           	push hl
  78+ 0A48 3A 1C 2C     	ld a,(con_atr_cur) ;атрибуты
  79+ 0A4B CD 7C 0B     	call PageSlot3
  80+ 0A4E E1           	pop hl
  81+ 0A4F C1           	pop bc
  82+ 0A50 78           	ld a,b;цвет
  83+ 0A51 77               ld (hl), a
  84+ 0A52 54 5D            ld de, hl
  85+ 0A54 13               inc de
  86+ 0A55 01 7F 02         ld bc, (80*8)-1
  87+ 0A58 ED B0            ldir
  88+ 0A5A 3A 18 2C         ld a,(page_slot3_cur)
  89+ 0A5D C3 7C 0B     	jp PageSlot3 ;вернуть страницу
  90+ 0A60
  91+ 0A60
  92+ 0A60              mvCR ;каретка вниз (по коду 13)
  93+ 0A60 ED 5B 99 0C  	ld de, (col_screen)
  94+ 0A64 14           	inc d ;row++
  95+ 0A65 7A           	ld a,d
  96+ 0A66 FE 19        	cp hsize ;последняя строка
  97+ 0A68 38 11        	jr c,mvCR1
  98+ 0A6A 3A 1B 2C     	ld a,(con_scr_cur) ;пиксели
  99+ 0A6D CD 7C 0B     	call PageSlot3 ;включить страницу пикселей
 100+ 0A70 CD 42 0B     	call scroll
 101+ 0A73 3A 18 2C     	ld a,(page_slot3_cur)
 102+ 0A76 CD 7C 0B     	call PageSlot3 ;вернуть страницу
 103+ 0A79 16 18        	ld d,hsize-1 ;остаться на последне строке
 104+ 0A7B              mvCR1
 105+ 0A7B 1E 00        	ld e, 0
 106+ 0A7D              	; ld a, 0
 107+ 0A7D              	; ld (half_tile_screen), a
 108+ 0A7D C3 15 0A     	jp gotoXY
 109+ 0A80
 110+ 0A80              ; Print just one symbol
 111+ 0A80              ; A - symbol
 112+ 0A80              ; putC
 113+ 0A80               	; ld hl, single_symbol_print ;single_symbol
 114+ 0A80              	; ld (hl), a
 115+ 0A80              	; ;ld a, 7 : call Memory.setPage
 116+ 0A80              	; ; ld a,(con_scr_cur) ;пиксели
 117+ 0A80              	; ; call PageSlot3
 118+ 0A80                  ; ld hl, single_symbol_print
 119+ 0A80                  ; call printL
 120+ 0A80                  ; ld a,(page_slot3_cur)
 121+ 0A80              	; jp PageSlot3 ;вернуть страницу
 122+ 0A80
 123+ 0A80              ; Put string
 124+ 0A80              ; hl - string pointer that's begins from symbol count
 125+ 0A80              printZ
 126+ 0A80 7E               ld a, (hl)
 126+ 0A81 A7             and a
 126+ 0A82 C8             ret z
 127+ 0A83 E5               push hl
 128+ 0A84 CD 8B 0A         call putC
 129+ 0A87 E1               pop hl
 130+ 0A88 23               inc hl
 131+ 0A89 18 F5            jr printZ
 132+ 0A8B
 133+ 0A8B              ; printL
 134+ 0A8B                      ; ld	a, (hl)
 135+ 0A8B              		; and	a
 136+ 0A8B              		; ret	z
 137+ 0A8B              putC
 138+ 0A8B FE 0D        		cp 13
 138+ 0A8D CA 60 0A       jp z, mvCR
 139+ 0A90 FE 0A        		cp 10
 139+ 0A92 C8            ret z ;пропустить символ
 140+ 0A93
 141+ 0A93 CD EC 0A     		call calc_addr_scr
 142+ 0A96 54           		ld d,h ;координаты экрана в DE
 143+ 0A97 5D           		ld e,l
 144+ 0A98 6F           		ld	l,a
 145+ 0A99 26 00        		ld	h,0
 146+ 0A9B 29           		add	hl,hl
 147+ 0A9C 29           		add	hl,hl
 148+ 0A9D 29           		add	hl,hl
 149+ 0A9E 01 00 24             ld      bc,font
 150+ 0AA1 09                   add     hl,bc ;hl - адрес шрифта буквы
 151+ 0AA2
 152+ 0AA2                      ;push    de
 153+ 0AA2
 154+ 0AA2 3A 1B 2C     	ld a,(con_scr_cur) ;страница пиксели
 155+ 0AA5 D9           	exx
 156+ 0AA6 CD 7C 0B     	call PageSlot3
 157+ 0AA9 D9           	exx
 158+ 0AAA D5           	push de ;сохранить адрес символа на экране
 159+ 0AAB
 160+ 0AAB 01 FF 08         ld  bc,#08ff
 161+ 0AAE              print80_1
 162+ 0AAE ED A0        	ldi ;один байт
 163+ 0AB0
 164+ 0AB0 E5           	push hl ;на строку пикселей вниз
 165+ 0AB1 21 4F 00     	ld hl,80-1
 166+ 0AB4 19           	add hl,de
 167+ 0AB5 EB           	ex de,hl
 168+ 0AB6 E1           	pop hl
 169+ 0AB7
 170+ 0AB7 10 F5        	djnz    print80_1
 171+ 0AB9
 172+ 0AB9
 173+ 0AB9 3A 1C 2C     	ld a,(con_atr_cur) ;страница атрибуты
 174+ 0ABC CD 7C 0B     	call PageSlot3
 175+ 0ABF
 176+ 0ABF E1           	pop hl ;адрес символа на экране
 177+ 0AC0
 178+ 0AC0 06 08            ld      b,8
 179+ 0AC2 3A 9B 0C     	ld a,(attr_screen)
 180+ 0AC5 11 50 00     	ld de,80
 181+ 0AC8              print80_1_attr ;теперь так же атрибуты
 182+ 0AC8
 183+ 0AC8 77           	ld (hl),a
 184+ 0AC9 19           	add hl,de
 185+ 0ACA
 186+ 0ACA 10 FC        	djnz    print80_1_attr
 187+ 0ACC
 188+ 0ACC
 189+ 0ACC
 190+ 0ACC              ; move cursor на одну позицию вперёд
 191+ 0ACC              move_cr80
 192+ 0ACC              	;inc	de
 193+ 0ACC
 194+ 0ACC 21 99 0C     	ld	hl,col_screen
 195+ 0ACF 34           	inc	(hl) ;увеличить столбец
 196+ 0AD0 7E           	ld	a,(hl)
 197+ 0AD1
 198+ 0AD1 FE 50        	cp	80
 199+ 0AD3 38 10        	jr	c,move_cr80_01 ;на выход
 200+ 0AD5
 201+ 0AD5 AF           	xor	a
 202+ 0AD6              	;ld	(half_tile_screen),a
 203+ 0AD6 77           	ld	(hl),a
 204+ 0AD7              	;ld	c,a
 205+ 0AD7
 206+ 0AD7 23           	inc	hl ;на переменную row
 207+ 0AD8 34           	inc	(hl)
 208+ 0AD9 7E           	ld	a,(hl)
 209+ 0ADA              	;ld	b,a
 210+ 0ADA
 211+ 0ADA FE 19        	cp	hsize ;всего строк
 212+ 0ADC DA E5 0A     	jp	c,move_cr80_01
 213+ 0ADF
 214+ 0ADF 3E 18        	ld	a,hsize-1
 215+ 0AE1 77           	ld	(hl),a
 216+ 0AE2              	;ld	b,a
 217+ 0AE2
 218+ 0AE2 CD 42 0B     	call scroll ;сдвиг вверх
 219+ 0AE5              	; push	bc
 220+ 0AE5              	; call	scroll_up8
 221+ 0AE5              	; pop	bc
 222+ 0AE5
 223+ 0AE5              move_cr80_01
 224+ 0AE5              	; call	calc_addr_scr
 225+ 0AE5 3A 18 2C     	ld a,(page_slot3_cur)
 226+ 0AE8 C3 7C 0B     	jp PageSlot3 ;вернуть страницу
 227+ 0AEB C9           	ret
 228+ 0AEC
 229+ 0AEC              calc_addr_scr	;определение адреса экрана по координатам символа
 230+ 0AEC ED 4B 99 0C  	ld	bc,(col_screen)
 231+ 0AF0              bc_to_attr:
 232+ 0AF0 26 00        	ld h,0
 233+ 0AF2 68           	ld l,b ;строка
 234+ 0AF3 29           	add hl,hl ;*2
 235+ 0AF4 11 65 0C     	ld de,table_addr_scr
 236+ 0AF7 19           	add hl,de
 237+ 0AF8 5E           	ld e,(hl)
 238+ 0AF9 23           	inc hl
 239+ 0AFA 56           	ld d,(hl) ;узнали координаты строки
 240+ 0AFB 26 00        	ld h,0
 241+ 0AFD 69           	ld l,c ;колонка
 242+ 0AFE 19           	add hl,de ;узнали адрес символа
 243+ 0AFF
 244+ 0AFF ED 5B 6D 0B  	ld de,(curscrl) ;добавить аппаратный скрол
 245+ 0B03 19           	add hl,de
 246+ 0B04 11 80 3E     	ld de,scrsize
 247+ 0B07 A7           	and a		;check over
 248+ 0B08 ED 52        	sbc hl,de
 249+ 0B0A 30 01        	jr nc,calc02
 250+ 0B0C 19           	add hl,de
 251+ 0B0D              calc02:
 252+ 0B0D 11 00 C0     	ld de,scraddr  ;screen
 253+ 0B10 19           	add hl,de
 254+ 0B11
 255+ 0B11              	; ld      a,b
 256+ 0B11              	; ld      d,a
 257+ 0B11              	; rrca
 258+ 0B11              	; rrca
 259+ 0B11              	; rrca
 260+ 0B11              	; and     a,224
 261+ 0B11              	; add     a,c
 262+ 0B11              	; ld      e,a
 263+ 0B11              	; ld      a,d
 264+ 0B11              	; and     24
 265+ 0B11              	; or      #c0
 266+ 0B11              	; ld      d,a
 267+ 0B11 C9           	ret
 268+ 0B12
 269+ 0B12
 270+ 0B12
 271+ 0B12              clear_line ;очистить строку
 272+ 0B12                  ;ld b, hsize-1 ;последняя
 273+ 0B12                  ;ld c, 0
 274+ 0B12 CD F0 0A         call bc_to_attr ;узнать адрес
 275+ 0B15 E5           	push hl
 276+ 0B16 54           	ld d,h
 277+ 0B17 5D           	ld e,l
 278+ 0B18 13           	inc de
 279+ 0B19 01 7F 02     	ld bc,scrline-1
 280+ 0B1C 36 00        	ld (hl),0
 281+ 0B1E ED B0        	ldir
 282+ 0B20 3A 1C 2C     	ld a,(con_atr_cur) ;теперь страница атрибутов
 283+ 0B23 CD 7C 0B     	call PageSlot3 ;
 284+ 0B26 E1           	pop hl
 285+ 0B27 54           	ld d,h
 286+ 0B28 5D           	ld e,l
 287+ 0B29 13           	inc de
 288+ 0B2A 01 7F 02     	ld bc,scrline-1
 289+ 0B2D              	;ld a,(con_atr_cur) ;атрибуты
 290+ 0B2D 36 00        	ld (hl),0
 291+ 0B2F ED B0        	ldir
 292+ 0B31 C9           	ret
 293+ 0B32
 294+ 0B32              gmxscron
 295+ 0B32 01 FD 7E                 ld      bc,#7efd
 296+ 0B35 3E C8                    ld      a,#c8
 297+ 0B37 ED 79                    out     (c),a
 298+ 0B39                          ; ld      bc,#7ffd
 299+ 0B39                          ; ld      a,#10    ;5 screen
 300+ 0B39                          ; out     (c),a
 301+ 0B39 C9                       ret
 302+ 0B3A
 303+ 0B3A              ; gmxscron2
 304+ 0B3A                          ; ld      bc,#7efd
 305+ 0B3A                          ; ld      a,#c8
 306+ 0B3A                          ; out     (c),a
 307+ 0B3A                          ; ld      bc,#7ffd
 308+ 0B3A                          ; ld      a,#18    ;7 screen
 309+ 0B3A                          ; out     (c),a
 310+ 0B3A                          ; ret
 311+ 0B3A
 312+ 0B3A              gmxscroff
 313+ 0B3A 01 FD 7E                 ld      bc,#7efd
 314+ 0B3D 3E C0                    ld      a,#c0
 315+ 0B3F ED 79                    out     (c),a
 316+ 0B41                          ; ld      bc,#7ffd
 317+ 0B41                          ; ld      a,#10    ;5 screen
 318+ 0B41                          ; out     (c),a
 319+ 0B41 C9                       ret
 320+ 0B42
 321+ 0B42
 322+ 0B42
 323+ 0B42
 324+ 0B42
 325+ 0B42
 326+ 0B42              scroll: ;push hl         ; скpолл экpана на стpоку ввеpх
 327+ 0B42 2A 6D 0B     	ld hl,(curscrl)	;hard scroll
 328+ 0B45 11 80 02     	ld de,scrline
 329+ 0B48 19           	add hl,de	;next line
 330+ 0B49 11 80 3E     	ld de,scrsize	;chek over 16000
 331+ 0B4C A7           	and a
 332+ 0B4D ED 52        	sbc hl,de
 333+ 0B4F 30 03        	jr nc,scrollchek
 334+ 0B51 19           	add hl,de
 335+ 0B52 18 03        	jr scrollchek1
 336+ 0B54              scrollchek:
 337+ 0B54 21 00 00     	ld hl,0
 338+ 0B57              scrollchek1:
 339+ 0B57 22 6D 0B     	ld (curscrl),hl
 340+ 0B5A CD 64 0B     	call gmxscroll
 341+ 0B5D
 342+ 0B5D 06 18            ld b,hsize-1    ;last line
 343+ 0B5F 0E 00        	ld c,0
 344+ 0B61                  ;ld a,(attr_screen) ;цвет
 345+ 0B61 C3 12 0B         jp clear_line      ; очистка последней стpоки
 346+ 0B64                  ;ret
 347+ 0B64               ;аппаратный скрол вверх
 348+ 0B64              gmxscroll:
 349+ 0B64              ;set hard scroll
 350+ 0B64              ;in:
 351+ 0B64              ;out:
 352+ 0B64              	;push af
 353+ 0B64              	;push bc
 354+ 0B64              	;push de
 355+ 0B64 21 23 2C     	ld hl,proc_id_cur
 356+ 0B67 3A 07 2C     	ld a,(proc_id_focus)
 357+ 0B6A BE           	cp (hl)
 358+ 0B6B C0           	ret nz ;скрол меняем только когда в фокусе
 359+ 0B6C
 360+ 0B6C 11 00 00     	ld de,0
 361+ 0B6F              curscrl equ $-2 ;current hard scroll (0-15999)
 362+ 0B6F 01 FD 7A     	ld bc,07AFDh
 363+ 0B72 7B           	ld a,e
 364+ 0B73 ED 79        	out (c),a
 365+ 0B75 01 FD 7C     	ld bc,07CFDh
 366+ 0B78 7A           	ld a,d
 367+ 0B79 ED 79        	out (c),a
 368+ 0B7B              	;pop de
 369+ 0B7B              	;pop bc
 370+ 0B7B              	;pop af
 371+ 0B7B C9           	ret
 372+ 0B7C
 373+ 0B7C
 374+ 0B7C
 375+ 0B7C
 376+ 0B7C
 377+ 0B7C              PageSlot3
 378+ 0B7C              ; драйвер памяти Scorpion GMX 2Mb
 379+ 0B7C
 380+ 0B7C                       ;push hl
 381+ 0B7C                       ; ld   hl,page_table
 382+ 0B7C                       ; add  a,l
 383+ 0B7C                       ; jr   nc,PageSlot3_1
 384+ 0B7C                       ; inc  h          ;коррекция
 385+ 0B7C              ; PageSlot3_1  ld   l,a
 386+ 0B7C                       ; ld   a,(hl)
 387+ 0B7C                       ;pop  hl
 388+ 0B7C                       ;cp   #ff
 389+ 0B7C                       ;scf
 390+ 0B7C                       ;ret  z
 391+ 0B7C                       ;push bc
 392+ 0B7C F5                    push af
 393+ 0B7D 07                    rlca
 394+ 0B7E E6 10        		 and #10
 395+ 0B80 F6 01                 or  #01  ;выбор ОЗУ вместо ПЗУ
 396+ 0B82 01 FD 1F              ld   bc,#1ffd
 397+ 0B85              PageSlot3DOS
 398+ 0B85              		 ;or #00 ; #04 тут выбор ПЗУ TRDOS
 399+ 0B85 ED 79                 out  (c),a
 400+ 0B87 F1                    pop  af
 401+ 0B88 F5                    push af
 402+ 0B89 E6 07                 and  #07
 403+ 0B8B              PageSlot3Scr ;тут выбор экрана и ПЗУ
 404+ 0B8B F6 10                 or   #10 ;#0 ;#18
 405+ 0B8D 06 7F                 ld   b,#7f
 406+ 0B8F ED 79                 out  (c),a
 407+ 0B91 F1                    pop  af
 408+ 0B92 0F                    rrca
 409+ 0B93 0F                    rrca
 410+ 0B94 0F                    rrca
 411+ 0B95 0F                    rrca
 412+ 0B96 E6 07                 and  #07
 413+ 0B98 06 DF                 ld   b,#df
 414+ 0B9A ED 79                 out  (c),a
 415+ 0B9C                       ;pop  hl
 416+ 0B9C C9                    ret
 417+ 0B9D
 418+ 0B9D              set_color
 419+ 0B9D 32 9B 0C     		ld (attr_screen),a
 420+ 0BA0 78           		ld a,b
 421+ 0BA1 32 9C 0C     		ld (attr_screen2),a
 422+ 0BA4 C9           		ret
 423+ 0BA5
 424+ 0BA5              set_scr5 ;включить экран 5
 425+ 0BA5 CD 3A 0B     		call gmxscroff ;выключить расширенный
 426+ 0BA8 3E 10        		ld a,#10
 427+ 0BAA 32 8C 0B     		ld (PageSlot3Scr+1),a
 428+ 0BAD 3A 18 2C     		ld a,(page_slot3_cur)
 429+ 0BB0 C3 7C 0B     		jp PageSlot3
 430+ 0BB3
 431+ 0BB3
 432+ 0BB3              set_scr7 ;включить экран 7
 433+ 0BB3 CD 3A 0B     		call gmxscroff ;выключить расширенный
 434+ 0BB6 3E 18        		ld a,#18
 435+ 0BB8 32 8C 0B     		ld (PageSlot3Scr+1),a
 436+ 0BBB 3A 18 2C     		ld a,(page_slot3_cur)
 437+ 0BBE C3 7C 0B     		jp PageSlot3
 438+ 0BC1
 439+ 0BC1
 440+ 0BC1              set_scr39 ;включить экран 39
 441+ 0BC1 CD 32 0B     		call gmxscron ;выключить расширенный
 442+ 0BC4 3E 10        		ld a,#10
 443+ 0BC6 32 8C 0B     		ld (PageSlot3Scr+1),a
 444+ 0BC9 3A 18 2C     		ld a,(page_slot3_cur)
 445+ 0BCC C3 7C 0B     		jp PageSlot3
 446+ 0BCF
 447+ 0BCF
 448+ 0BCF              set_scr3a ;включить экран 3b
 449+ 0BCF CD 32 0B     		call gmxscron ;выключить расширенный
 450+ 0BD2 3E 18        		ld a,#18
 451+ 0BD4 32 8C 0B     		ld (PageSlot3Scr+1),a
 452+ 0BD7 3A 18 2C     		ld a,(page_slot3_cur)
 453+ 0BDA C3 7C 0B     		jp PageSlot3
 454+ 0BDD
 455+ 0BDD
 456+ 0BDD
 457+ 0BDD
 458+ 0BDD
 459+ 0BDD
 460+ 0BDD              ;Таблица страниц кроме #00-#07, #39, #3a, #77-7F
 461+ 0BDD              page_table    ;db   #00,#01,#02,#03,#04,#05,#06,#07,
 462+ 0BDD 08 09        		 db	  #08,#09
 463+ 0BDF 0A 0B 0C 0D           db   #0a,#0b,#0c,#0d,#0e
 463+ 0BE3 0E
 464+ 0BE4 0F 10 11 12           db   #0f,#10,#11,#12,#13,#14
 464+ 0BE8 13 14
 465+ 0BEA 15 16 17 18           db   #15,#16,#17,#18,#19,#1a
 465+ 0BEE 19 1A
 466+ 0BF0 1B 1C 1D 1E           db   #1b,#1c,#1d,#1e,#1f,#20
 466+ 0BF4 1F 20
 467+ 0BF6 21 22 23 24           db   #21,#22,#23,#24,#25,#26
 467+ 0BFA 25 26
 468+ 0BFC 27 28 29 2A           db   #27,#28,#29,#2a,#2b,#2c
 468+ 0C00 2B 2C
 469+ 0C02 2D 2E 2F 30           db   #2d,#2e,#2f,#30,#31,#32
 469+ 0C06 31 32
 470+ 0C08 33 34 35 36           db   #33,#34,#35,#36,#37,#38
 470+ 0C0C 37 38
 471+ 0C0E 3B 3C 3D 3E           db   #3b,#3c,#3d,#3e,#3f,#40
 471+ 0C12 3F 40
 472+ 0C14 41 42 43 44           db   #41,#42,#43,#44,#45,#46
 472+ 0C18 45 46
 473+ 0C1A 47 48 49 4A           db   #47,#48,#49,#4a,#4b,#4c
 473+ 0C1E 4B 4C
 474+ 0C20
 475+ 0C20 4D 4E 4F 50           db   #4d,#4e,#4f,#50,#51,#52
 475+ 0C24 51 52
 476+ 0C26 53 54 55 56           db   #53,#54,#55,#56,#57,#58
 476+ 0C2A 57 58
 477+ 0C2C 59 5A 5B 5C           db   #59,#5a,#5b,#5c,#5d,#5e
 477+ 0C30 5D 5E
 478+ 0C32 5F 60 61 62           db   #5f,#60,#61,#62,#63,#64
 478+ 0C36 63 64
 479+ 0C38 65 66 67 68           db   #65,#66,#67,#68,#69,#6a
 479+ 0C3C 69 6A
 480+ 0C3E 6B 6C 6D 6E           db   #6b,#6c,#6d,#6e,#6f,#70
 480+ 0C42 6F 70
 481+ 0C44 71 72 73 74           db   #71,#72,#73,#74,#75,#76
 481+ 0C48 75 76
 482+ 0C4A                       ;db   #77,#78,#79,#7a,#7b,#7c,#7d,#7e
 483+ 0C4A                       ;db   #7f
 484+ 0C4A              page_table_end
 485+ 0C4A 00 00 00...           ds 128-(page_table_end-page_table) ;забить остаток нулями
 486+ 0C5D
 487+ 0C5D
 488+ 0C5D
 489+ 0C5D              ;font equ #4000 ; Using ZX-Spectrum screen as font buffer
 490+ 0C5D              ;font_file db "data/font.bin", 0
 491+ 0C5D
 492+ 0C5D              PageSlot2 ;включение банка из A в слот памяти 2
 493+ 0C5D EE 02        	xor 2
 494+ 0C5F 01 FD 78     	ld bc,#78fd
 495+ 0C62 ED 79        	out (c),a
 496+ 0C64 C9           	ret
 497+ 0C65
 498+ 0C65
 499+ 0C65              table_addr_scr	;адреса строк текста
 500+ 0C65 00 00        	defw	00000h ;0
 501+ 0C67 80 02        	defw	00280h
 502+ 0C69 00 05        	defw	00500h
 503+ 0C6B 80 07        	defw	00780h
 504+ 0C6D 00 0A        	defw	00a00h
 505+ 0C6F 80 0C        	defw	00c80h
 506+ 0C71 00 0F        	defw	00f00h
 507+ 0C73 80 11        	defw	01180h
 508+ 0C75
 509+ 0C75 00 14        	defw	01400h ;8
 510+ 0C77 80 16        	defw	01680h
 511+ 0C79 00 19        	defw	01900h
 512+ 0C7B 80 1B        	defw	01b80h
 513+ 0C7D 00 1E        	defw	01e00h
 514+ 0C7F 80 20        	defw	02080h
 515+ 0C81 00 23        	defw	02300h
 516+ 0C83 80 25        	defw	02580h
 517+ 0C85
 518+ 0C85 00 28        	defw	02800h ;16
 519+ 0C87 80 2A        	defw	02a80h
 520+ 0C89 00 2D        	defw	02d00h
 521+ 0C8B 80 2F        	defw	02f80h
 522+ 0C8D 00 32        	defw	03200h
 523+ 0C8F 80 34        	defw	03480h
 524+ 0C91 00 37        	defw	03700h
 525+ 0C93 80 39        	defw	03980h
 526+ 0C95
 527+ 0C95 00 3C        	defw	03c00h ;24
 528+ 0C97 80 3E        	defw	03e80h ;25 вне экрана
 529+ 0C99
 530+ 0C99
 531+ 0C99 00           col_screen			db	0	;столбец
 532+ 0C9A 00           row_screen			db	0	;строка
 533+ 0C9B              ;half_tile_screen	db	0
 534+ 0C9B 07           attr_screen			db	07	;основной цвет
 535+ 0C9C 0C           attr_screen2		db	#c	;второй цвет
 536+ 0C9D
 537+ 0C9D
 538+ 0C9D              ;col_screen_temp			dw	0
 539+ 0C9D              ;half_tile_screen_temp	db	0
 540+ 0C9D
 541+ 0C9D 01           single_symbol_print db 1
 542+ 0C9E 00           single_symbol 		db 0
 543+ 0C9F
 544+ 0C9F 00 00 00...  fill_buff ds 80+1
 545+ 0CF0
 546+ 0CF0                  endmodule
# file closed: Drv/zsgmx.asm
2585  0CF0              	include Drv/zsfat.asm ;драйвер диска
# file opened: Drv/zsfat.asm
   1+ 0CF0              ;trdos & fat32 driver (izzx)
   2+ 0CF0                  MODULE Dos
   3+ 0CF0              ; API methods - для всех процессов
   4+ 0CF0              ;ESX_GETSETDRV = #89
   5+ 0CF0              ;ESX_FOPEN = #9A
   6+ 0CF0              ;ESX_FCLOSE = #9B
   7+ 0CF0              ;ESX_FSYNC = #9C
   8+ 0CF0              ;ESX_FREAD = #9D
   9+ 0CF0              ;ESX_FWRITE = #9E
  10+ 0CF0
  11+ 0CF0              ; File modes
  12+ 0CF0              FMODE_READ = #01
  13+ 0CF0              ;FMODE_WRITE = #06
  14+ 0CF0              FMODE_CREATE = #0E
  15+ 0CF0
  16+ 0CF0                  ; MACRO esxCall func
  17+ 0CF0                  ; rst #8 : db func
  18+ 0CF0                  ; ENDM
  19+ 0CF0
  20+ 0CF0              ;макросы только для внутренней работы самого модуля через BIOS
  21+ 0CF0              ;
  22+ 0CF0              ;R8DOS			вызов функции R8DOS
  23+ 0CF0              ;R8FAT			вызов функции R8FAT
  24+ 0CF0              ;R8DOSc			вызов функции R8DOS
  25+ 0CF0              ;
  26+ 0CF0              ;------------------------------------------------------------------------------
  27+ 0CF0              ;вызов функции R8DOS
  28+ 0CF0              ;вх: =0 номер функции
  29+ 0CF0              ;
  30+ 0CF0              	MACRO	R8DOS nFunc
  31+ 0CF0 ~            	ld	c,nFunc
  32+ 0CF0 ~            	rst	#08
  33+ 0CF0 ~            	db	#81
  34+ 0CF0              	ENDM
  35+ 0CF0
  36+ 0CF0              ;------------------------------------------------------------------------------
  37+ 0CF0              ;вызов функции R8FAT
  38+ 0CF0              ;вх: =0 номер функции
  39+ 0CF0              ;
  40+ 0CF0              	MACRO	R8FAT nFunc
  41+ 0CF0 ~            	ld	c,nFunc
  42+ 0CF0 ~            	rst	#08
  43+ 0CF0 ~            	db	#91
  44+ 0CF0              	ENDM
  45+ 0CF0
  46+ 0CF0              ;------------------------------------------------------------------------------
  47+ 0CF0              ;вызов функции R8DOS
  48+ 0CF0              ;вх: c - номер функции
  49+ 0CF0              ;
  50+ 0CF0              	MACRO	R8DOSc
  51+ 0CF0 ~            	rst	#08
  52+ 0CF0 ~            	db	#81
  53+ 0CF0              	ENDM
  54+ 0CF0
  55+ 0CF0              ;------------------------------------------------------------------------------
  56+ 0CF0              ;вызов функции #02 (FileMan) R8CONF
  57+ 0CF0              ;вх: =#00 - номер функции файл менеджера
  58+ 0CF0              ;
  59+ 0CF0              	MACRO	R8C02FM nFunct
  60+ 0CF0 ~            	ld	bc,#100*nFunct+#02
  61+ 0CF0 ~            	rst	#08
  62+ 0CF0 ~            	db	#8E
  63+ 0CF0              	ENDM
  64+ 0CF0
  65+ 0CF0              ;==============================================================================
  66+ 0CF0              r8f00_DeinitFAT		equ #00 ;деинициализация переменных раздела FAT
  67+ 0CF0              r8f01_InitFAT		equ #01 ;инициализация переменных раздела FAT, если он еще не инициализирован
  68+ 0CF0              r8f02_ReadDIR		equ #02 ;чтение секторов текущего каталога
  69+ 0CF0              r8f03_SetRoot		equ #03 ;установка корневого каталога текущим
  70+ 0CF0              r8f04_FindPath		equ #04 ;поиск файла по заданному пути в текущем каталоге со входом в подкаталоги с проверкой синтаксиса (с установкой найденного каталога текущим)
  71+ 0CF0              r8f05_OpenDir		equ #05 ;вход в каталог/выход в родительский каталог
  72+ 0CF0
  73+ 0CF0              r8f07_FileOpen		equ #07 ;открыть файл для последующих операций с ним
  74+ 0CF0              r8f08_FileRead		equ #08	;чтение данных из файла в память
  75+ 0CF0              r8f09_FileWrite		equ #09	;запись данных из памяти в файл
  76+ 0CF0
  77+ 0CF0              r8f0E_CreateFileLFN	equ #0E ;создание файла с длинным именем в текущем каталоге
  78+ 0CF0              r8f0F_CreateFileSFN	equ #0F ;создание файла с именем 8+3 в текущем каталоге	в fcb должны быть установлены: fcbName, fcbExt, fcbSize
  79+ 0CF0              r8f13_GetPath 		equ #13 ;получение текущего пути
  80+ 0CF0              r8f14_GetLFN		equ #14 ;получение длинного имени файла
  81+ 0CF0
  82+ 0CF0              r8d2D_FindPart		equ #2D ;поиск разделов FAT32 и MFS на текущем винчестере
  83+ 0CF0              r8d2E_CngHDD		equ #2E ;смена текущего винчестера
  84+ 0CF0
  85+ 0CF0              ;конец макросов BIOS
  86+ 0CF0
  87+ 0CF0              files_fat_max equ 8 ;максимальное число открытых файлов fat
  88+ 0CF0              files_trd_max equ 8 ;максимальное число открытых файлов trd
  89+ 0CF0              fcb_fat_size equ 32 ;размер дискриптора fcb
  90+ 0CF0
  91+ 0CF0
  92+ 0CF0
  93+ 0CF0              ; Returns:
  94+ 0CF0              ;  A - current drive
  95+ 0CF0              ; getDefaultDrive: ;нигде не используется
  96+ 0CF0                  ; ld a, 0 : esxCall ESX_GETSETDRV
  97+ 0CF0                  ; ret
  98+ 0CF0
  99+ 0CF0
 100+ 0CF0
 101+ 0CF0              ; Opens file on default drive
 102+ 0CF0              ; B - File mode
 103+ 0CF0              ; HL - File name
 104+ 0CF0              ; Returns:
 105+ 0CF0              ;  A - file stream id
 106+ 0CF0              ; DE, BC - File size
 107+ 0CF0              ; IX - fcb
 108+ 0CF0              ; fopen:
 109+ 0CF0                  ; ; push bc : push hl
 110+ 0CF0                  ; ; call getDefaultDrive
 111+ 0CF0                  ; ; pop ix : pop bc
 112+ 0CF0                  ; ; esxCall ESX_FOPEN
 113+ 0CF0                  ; ; ret
 114+ 0CF0              	; ld a,b
 115+ 0CF0              	; cp FMODE_READ ;если режим открытие файла
 116+ 0CF0              	; jr z,fopen_r
 117+ 0CF0              	; cp FMODE_CREATE
 118+ 0CF0              	; jr z,fopen_c ;если режим создание файла
 119+ 0CF0              	; jp file_error ;иначе выход
 120+ 0CF0
 121+ 0CF0
 122+ 0CF0              fopen_r	;открытие существующего файла на чтение
 123+ 0CF0
 124+ 0CF0 CD 36 0D     	call fopen_prep
 125+ 0CF3 DA 37 0E     	jp 	c,file_error
 126+ 0CF6
 127+ 0CF6 32 22 10     	ld (file_fat_id_cur),a
 128+ 0CF9
 129+ 0CF9              	;сначала сделаем текущей папку активного приложения
 130+ 0CF9 D9           	exx
 131+ 0CFA 3A 23 2C     	ld a,(proc_id_cur)
 132+ 0CFD CD 2D 0F     	call calc_dir_deskr
 133+ 0D00 EB           	ex de,hl
 134+ 0D01 21 00 00     	ld hl,0
 135+ 0D04                  ; hl - адрес пути (=#0000 - путь отсутствует)
 136+ 0D04                  ; de - адрес дескриптора директории/файла
 137+ 0D04              	R8FAT r8f05_OpenDir	;открыть текущий каталог
 137+ 0D04 0E 05       >	ld	c,r8f05_OpenDir
 137+ 0D06 CF          >	rst	#08
 137+ 0D07 91          >	db	#91
 138+ 0D08 D9           	exx
 139+ 0D09
 140+ 0D09              	;ld a,(file_fat_id_cur)
 141+ 0D09              	R8FAT r8f07_FileOpen ;открыть
 141+ 0D09 0E 07       >	ld	c,r8f07_FileOpen
 141+ 0D0B CF          >	rst	#08
 141+ 0D0C 91          >	db	#91
 142+ 0D0D DA 37 0E     	jp 	c,file_error
 143+ 0D10
 144+ 0D10
 145+ 0D10 C3 43 0D     	jp fopen_ex
 146+ 0D13
 147+ 0D13
 148+ 0D13              fopen_c	;создание нового файла
 149+ 0D13
 150+ 0D13 CD 36 0D     	call fopen_prep
 151+ 0D16 DA 37 0E     	jp 	c,file_error
 152+ 0D19
 153+ 0D19
 154+ 0D19 32 22 10     	ld (file_fat_id_cur),a
 155+ 0D1C
 156+ 0D1C              	;сначала сделаем текущей папку активного приложения
 157+ 0D1C D9           	exx
 158+ 0D1D 3A 23 2C     	ld a,(proc_id_cur)
 159+ 0D20 CD 2D 0F     	call calc_dir_deskr
 160+ 0D23 EB           	ex de,hl
 161+ 0D24 21 00 00     	ld hl,0
 162+ 0D27                  ; hl - адрес пути (=#0000 - путь отсутствует)
 163+ 0D27                  ; de - адрес дескриптора директории/файла
 164+ 0D27              	R8FAT r8f05_OpenDir	;открыть текущий каталог
 164+ 0D27 0E 05       >	ld	c,r8f05_OpenDir
 164+ 0D29 CF          >	rst	#08
 164+ 0D2A 91          >	db	#91
 165+ 0D2B D9           	exx
 166+ 0D2C
 167+ 0D2C              	;ld a,(file_fat_id_cur)
 168+ 0D2C              	R8FAT	r8f0E_CreateFileLFN	;создание файла
 168+ 0D2C 0E 0E       >	ld	c,r8f0E_CreateFileLFN
 168+ 0D2E CF          >	rst	#08
 168+ 0D2F 91          >	db	#91
 169+ 0D30 DA 37 0E     	jp 	c,file_error
 170+ 0D33
 171+ 0D33 C3 43 0D     	jp fopen_ex
 172+ 0D36
 173+ 0D36
 174+ 0D36              fopen_prep ;проверка перед открытием файла
 175+ 0D36 3A CE 10     	ld a,(fs_fat_init_flag)
 176+ 0D39 B7           	or a
 177+ 0D3A 37           	scf
 178+ 0D3B C8           	ret z
 179+ 0D3C
 180+ 0D3C E5           	push hl
 181+ 0D3D CD E8 0F     	call find_empty_fcb_fat ;какой fcb свободен?
 182+ 0D40 EB           	ex de,hl ;fcb in de
 183+ 0D41 E1           	pop hl
 184+ 0D42 C9           	ret ;выйти с флагом
 185+ 0D43
 186+ 0D43
 187+ 0D43              fopen_ex
 188+ 0D43              	;успешно создали/открыли
 189+ 0D43 D5           	push de
 190+ 0D44 DD E1        	pop ix ;вернуть fcb
 191+ 0D46 21 12 12     	ld hl,fcb_fat_table
 192+ 0D49 3A 22 10     	ld a,(file_fat_id_cur)
 193+ 0D4C 4F           	ld c,a
 194+ 0D4D 06 00        	ld b,0
 195+ 0D4F 09           	add hl,bc
 196+ 0D50 3A 23 2C     	ld a,(proc_id_cur)
 197+ 0D53 77           	ld (hl),a ;флаг что файл открыт (id текущего процесса)
 198+ 0D54
 199+ 0D54              	;вернуть размер файла
 200+ 0D54 DD 4E 14     	ld	c,(ix+#14) ;младшие байты длины
 201+ 0D57 DD 46 15     	ld	b,(ix+#15)
 202+ 0D5A
 203+ 0D5A DD 5E 16     	ld	e,(ix+#16) ;старшие байты длины
 204+ 0D5D DD 56 17     	ld  d,(ix+#17)
 205+ 0D60
 206+ 0D60 3A 22 10     	ld a,(file_fat_id_cur) ;вернуть id
 207+ 0D63 B7           	or a
 208+ 0D64 C9           	ret
 209+ 0D65
 210+ 0D65
 211+ 0D65
 212+ 0D65
 213+ 0D65              init_fs_fat	;инициализация файловой системы
 214+ 0D65              	; ld a,(fs_fat_init_flag) ;если в первый раз
 215+ 0D65              	; or a
 216+ 0D65              	; jr nz,init_fs_fat2
 217+ 0D65 AF           	xor a
 218+ 0D66 32 CE 10     	ld (fs_fat_init_flag),a ;сбросить флаг инициализации
 219+ 0D69 3E 04        	ld a,4 ;номер дисковода по умолчанию E
 220+ 0D6B 32 8B 0F     	ld (fs_drive_number_cur),a
 221+ 0D6E CD 9B 0F     	call GetNumPart ;узнаем какая буква последняя, сколько разделов FAT
 222+ 0D71 30 0B        	jr nc,init_fs_fat_prn2
 223+ 0D73 B7           	or a
 224+ 0D74 20 08        	jr nz,init_fs_fat_prn2
 225+ 0D76 21 44 10     	ld hl,msg_fat_not_found
 226+ 0D79 CD 80 0A     	call drvgmx.printZ
 227+ 0D7C 37           	scf ;ошибка
 228+ 0D7D C9           	ret
 229+ 0D7E
 230+ 0D7E
 231+ 0D7E              init_fs_fat_prn2
 232+ 0D7E              	;печать списка разделов
 233+ 0D7E 21 24 10     	ld hl,msg_fat_found
 234+ 0D81 CD 80 0A     	call drvgmx.printZ
 235+ 0D84 21 8C 0F     	ld hl,typeDrive
 236+ 0D87 3A 99 0F     	ld a,(numDrives)
 237+ 0D8A 47           	ld b,a ;цикл по количеству разделов
 238+ 0D8B 0E 45        	ld c,"E" ;первая буква диска FAT
 239+ 0D8D              init_fs_fat_prn1
 240+ 0D8D C5           	push bc
 241+ 0D8E E5           	push hl
 242+ 0D8F 79           	ld a,c ;имя диска
 243+ 0D90 CD 8B 0A     	call drvgmx.putC
 244+ 0D93 3E 3A        	ld a,":" ;
 245+ 0D95 CD 8B 0A     	call drvgmx.putC
 246+ 0D98              	;тип S или H
 247+ 0D98 3E 48        	ld a,"H"
 248+ 0D9A E1           	pop hl
 249+ 0D9B E5           	push hl
 250+ 0D9C CB 5E        	bit 3,(hl) ;SD?
 251+ 0D9E 28 02        	jr z,init_fs_fat_prn3
 252+ 0DA0 3E 53        	ld a,"S"
 253+ 0DA2              init_fs_fat_prn3
 254+ 0DA2 CD 8B 0A     	call drvgmx.putC ;первая буква
 255+ 0DA5 3E 44        	ld a,"D"
 256+ 0DA7 CD 8B 0A     	call drvgmx.putC ;вторая буква
 257+ 0DAA              	;номер диска
 258+ 0DAA E1           	pop hl
 259+ 0DAB E5           	push hl
 260+ 0DAC 7E           	ld a,(hl)
 261+ 0DAD E6 04        	and %00000100
 262+ 0DAF 0F           	rrca
 263+ 0DB0 0F           	rrca
 264+ 0DB1 C6 30        	add "0"
 265+ 0DB3 CD 8B 0A     	call drvgmx.putC ;номер диска
 266+ 0DB6              	;номер раздела
 267+ 0DB6 3E 2C        	ld a,","
 268+ 0DB8 CD 8B 0A     	call drvgmx.putC ;разделитель
 269+ 0DBB E1           	pop hl
 270+ 0DBC E5           	push hl
 271+ 0DBD 7E           	ld a,(hl)
 272+ 0DBE E6 03        	and %00000011
 273+ 0DC0 C6 30        	add "0"
 274+ 0DC2 CD 8B 0A     	call drvgmx.putC ;номер раздела
 275+ 0DC5 3E 0D        	ld a,13 ;новая строка
 276+ 0DC7 CD 8B 0A     	call drvgmx.putC
 277+ 0DCA E1           	pop hl
 278+ 0DCB 23           	inc hl
 279+ 0DCC C1           	pop bc
 280+ 0DCD 0C           	inc c
 281+ 0DCE 10 BD        	djnz init_fs_fat_prn1
 282+ 0DD0
 283+ 0DD0
 284+ 0DD0              	;поиск системы и выбор диска
 285+ 0DD0 3A 99 0F     	ld a,(numDrives)
 286+ 0DD3 DD 6F        	ld ixl,a ;цикл по количеству разделов
 287+ 0DD5 3A 8B 0F     	ld a,(fs_drive_number_cur)
 288+ 0DD8              init_fs_fat_find_os_cl
 289+ 0DD8 01 88 0F     	ld bc,typeDrive-4
 290+ 0DDB 6F           	ld l,a
 291+ 0DDC 26 00        	ld h,0
 292+ 0DDE 09           	add hl,bc
 293+ 0DDF 7E           	ld a,(hl) ;получили код раздела из списка
 294+ 0DE0
 295+ 0DE0 CD 17 0E     	call init_fs_fat_warm ;выбрать раздел
 296+ 0DE3 D8           	ret c
 297+ 0DE4
 298+ 0DE4              	;поиск пути в разделе
 299+ 0DE4 21 CF 10     	ld	hl,OS_PathFAT		;путь к каталогу системы
 300+ 0DE7 11 E2 10     	ld	de,dir_fat_deskr ;будет дескриптор системной папки
 301+ 0DEA AF           	xor	a
 302+ 0DEB 3D           	dec	a ;установить текущим
 303+ 0DEC              	R8FAT	r8f04_FindPath
 303+ 0DEC 0E 04       >	ld	c,r8f04_FindPath
 303+ 0DEE CF          >	rst	#08
 303+ 0DEF 91          >	db	#91
 304+ 0DF0 30 10        	jr nc,init_fs_fat_find_os_ok
 305+ 0DF2
 306+ 0DF2 3A 8B 0F     	ld a,(fs_drive_number_cur)
 307+ 0DF5 3C           	inc a
 308+ 0DF6 32 8B 0F     	ld (fs_drive_number_cur),a
 309+ 0DF9 DD 2D        	dec ixl
 310+ 0DFB 20 DB        	jr nz,init_fs_fat_find_os_cl
 311+ 0DFD
 312+ 0DFD
 313+ 0DFD              	;не нашли ОС
 314+ 0DFD CD 47 0E         call   file_error_print_dir_not_found ;если не нашли, файл будет в корне
 315+ 0E00 37           	scf
 316+ 0E01 C9           	ret
 317+ 0E02              init_fs_fat_find_os_ok
 318+ 0E02              	;нашли раздел с ОС
 319+ 0E02 21 31 10     	ld hl,msg_fat_found_os
 320+ 0E05 CD 80 0A     	call drvgmx.printZ
 321+ 0E08 3A 8B 0F     	ld a,(fs_drive_number_cur)
 322+ 0E0B C6 41        	add a,"A"
 323+ 0E0D CD 8B 0A     	call drvgmx.putC
 324+ 0E10 3E 0D        	ld a,13
 325+ 0E12 CD 8B 0A     	call drvgmx.putC
 326+ 0E15 B7           	or a
 327+ 0E16 C9           	ret
 328+ 0E17
 329+ 0E17
 330+ 0E17              init_fs_fat_warm
 331+ 0E17              ;переинициализация FAT раздела, когда разделы-диски уже найдены
 332+ 0E17              ;вх: a - код раздела
 333+ 0E17 32 23 10     	ld (fs_fat_part_code_cur),a ;запомнить текущий раздел
 334+ 0E1A AF           	xor a
 335+ 0E1B 32 CE 10     	ld (fs_fat_init_flag),a ;сбросить флаг инициализации
 336+ 0E1E 3A 23 10     	ld a,(fs_fat_part_code_cur)
 337+ 0E21
 338+ 0E21              	; R8FAT	r8f00_DeinitFAT
 339+ 0E21              	; jp 		c,file_error
 340+ 0E21
 341+ 0E21
 342+ 0E21              	R8FAT	r8f01_InitFAT ;инициализация
 342+ 0E21 0E 01       >	ld	c,r8f01_InitFAT
 342+ 0E23 CF          >	rst	#08
 342+ 0E24 91          >	db	#91
 343+ 0E25 D2 30 0E         jp      nc,init_fs_fat3
 344+ 0E28 21 54 10     	ld hl,msg_fat_init_error
 345+ 0E2B CD 80 0A     	call drvgmx.printZ
 346+ 0E2E 37           	scf
 347+ 0E2F C9           	ret
 348+ 0E30
 349+ 0E30              init_fs_fat3
 350+ 0E30
 351+ 0E30
 352+ 0E30              ;получить текущий путь
 353+ 0E30              	; ld	hl,#4000		;адрес буфера для размещения текущего пути (256 байт)
 354+ 0E30              	; R8FAT	r8f13_GetPath ;получить путь
 355+ 0E30
 356+ 0E30              ;init_fs_fat_ex ;выход
 357+ 0E30 3E 01        	ld a,1
 358+ 0E32 32 CE 10     	ld (fs_fat_init_flag),a
 359+ 0E35 B7           	or a
 360+ 0E36 C9           	ret
 361+ 0E37
 362+ 0E37
 363+ 0E37
 364+ 0E37
 365+ 0E37
 366+ 0E37
 367+ 0E37              file_error ;выход с ошибкой
 368+ 0E37 11 00 00     	ld de,0
 369+ 0E3A 01 00 00     	ld bc,0 ;длина 0
 370+ 0E3D 37           	scf ;ошибка
 371+ 0E3E C9           	ret
 372+ 0E3F
 373+ 0E3F              file_error_general_print ;выход с общей ошибкой и сообщением
 374+ 0E3F 21 65 10     	ld hl,msg_file_error_general
 375+ 0E42 CD 80 0A     	call drvgmx.printZ
 376+ 0E45 37           	scf ;ошибка
 377+ 0E46 C9           	ret
 378+ 0E47
 379+ 0E47              file_error_print_dir_not_found ;выход с ошибкой и сообщением
 380+ 0E47 21 B6 10     	ld hl,msg_dir_not_found
 381+ 0E4A CD 80 0A     	call drvgmx.printZ
 382+ 0E4D 37           	scf ;ошибка
 383+ 0E4E C9           	ret
 384+ 0E4F
 385+ 0E4F              file_error_print_file_too_big ;выход с ошибкой и сообщением
 386+ 0E4F 21 72 10     	ld hl,msg_file_too_big
 387+ 0E52 CD 80 0A     	call drvgmx.printZ
 388+ 0E55 37           	scf ;ошибка
 389+ 0E56 C9           	ret
 390+ 0E57
 391+ 0E57              file_error_print_file_not_found ;выход с ошибкой и сообщением
 392+ 0E57 21 81 10     	ld hl,msg_file_not_found
 393+ 0E5A CD 80 0A     	call drvgmx.printZ
 394+ 0E5D 37           	scf ;ошибка
 395+ 0E5E C9           	ret
 396+ 0E5F
 397+ 0E5F              file_error_print_file_open_error ;выход с ошибкой и сообщением
 398+ 0E5F 21 92 10     	ld hl,msg_file_open_error
 399+ 0E62 CD 80 0A     	call drvgmx.printZ
 400+ 0E65 37           	scf ;ошибка
 401+ 0E66 C9           	ret
 402+ 0E67
 403+ 0E67              file_error_print_file_read_error ;выход с ошибкой и сообщением
 404+ 0E67 21 A4 10     	ld hl,msg_file_read_error
 405+ 0E6A CD 80 0A     	call drvgmx.printZ
 406+ 0E6D 37           	scf ;ошибка
 407+ 0E6E C9           	ret
 408+ 0E6F
 409+ 0E6F
 410+ 0E6F
 411+ 0E6F
 412+ 0E6F              ; A - file stream id
 413+ 0E6F              fclose:
 414+ 0E6F                  ;esxCall ESX_FCLOSE
 415+ 0E6F              	; push af
 416+ 0E6F              ; WAITKEY2	XOR A:IN A,(#FE):CPL:AND #1F:JR Z,WAITKEY2
 417+ 0E6F              	; pop af
 418+ 0E6F              	; cp 2 ;если обычный файл
 419+ 0E6F              	; jp nz,fclose_scl
 420+ 0E6F
 421+ 0E6F              close_fcb_fat ;закрытие fcb файла по номеру
 422+ 0E6F              ;вх: a - id файла
 423+ 0E6F              	;выход hl - fcb;
 424+ 0E6F 21 30 12     	ld hl,fcb_fat
 425+ 0E72 B7           	or a
 426+ 0E73 28 07        	jr z,close_fcb_fat_ex
 427+ 0E75 47           	ld b,a
 428+ 0E76 11 20 00     	ld de,fcb_fat_size
 429+ 0E79              close_fcb_fat_cl
 430+ 0E79              	;вычислить адрес fcb
 431+ 0E79 19           	add hl,de
 432+ 0E7A 10 FD        	djnz close_fcb_fat_cl
 433+ 0E7C              close_fcb_fat_ex
 434+ 0E7C E5           	push hl
 435+ 0E7D 54           	ld d,h ;почистить fcb
 436+ 0E7E 5D           	ld e,l
 437+ 0E7F 13           	inc de
 438+ 0E80 01 1F 00     	ld bc,fcb_fat_size-1
 439+ 0E83 36 00        	ld (hl),0
 440+ 0E85 ED B0        	ldir
 441+ 0E87 21 12 12     	ld hl,fcb_fat_table
 442+ 0E8A 4F           	ld c,a
 443+ 0E8B 06 00        	ld b,0
 444+ 0E8D 09           	add hl,bc
 445+ 0E8E 36 00        	ld (hl),0 ;и флаг открытия fcb_fat_table
 446+ 0E90 E1           	pop hl
 447+ 0E91 C9           	ret
 448+ 0E92
 449+ 0E92
 450+ 0E92
 451+ 0E92              ;закрытие всех файлов процесса
 452+ 0E92              ;вх: A - id процесса
 453+ 0E92              fclose_proc_all
 454+ 0E92 21 12 12     	ld hl,fcb_fat_table
 455+ 0E95 06 08        	ld b,files_fat_max
 456+ 0E97 0E 00        	ld c,0 ;id файла
 457+ 0E99              fclose_proc_all_cl
 458+ 0E99 BE           	cp (hl) ;совпадает с id процесса?
 459+ 0E9A 20 08        	jr nz,fclose_proc_all_skip
 460+ 0E9C F5           	push af
 461+ 0E9D 79           	ld a,c ;id файла
 462+ 0E9E D9           	exx
 463+ 0E9F CD 6F 0E     	call close_fcb_fat ;закрыть
 464+ 0EA2 D9           	exx
 465+ 0EA3 F1           	pop af
 466+ 0EA4              fclose_proc_all_skip
 467+ 0EA4 23           	inc hl
 468+ 0EA5 0C           	inc c
 469+ 0EA6 10 F1        	djnz fclose_proc_all_cl
 470+ 0EA8 C9           	ret
 471+ 0EA9
 472+ 0EA9
 473+ 0EA9
 474+ 0EA9
 475+ 0EA9
 476+ 0EA9
 477+ 0EA9              ; A - file stream id
 478+ 0EA9              ; DE - length
 479+ 0EA9              ; HL - buffer
 480+ 0EA9              ; Returns
 481+ 0EA9              ;  BC - length(how much was actually read)
 482+ 0EA9              fread: ;(id=1)
 483+ 0EA9                  ; push hl : pop ix
 484+ 0EA9                  ; esxCall ESX_FREAD
 485+ 0EA9
 486+ 0EA9 ED 53 CC 10  	ld (file_size_tmp),de
 487+ 0EAD
 488+ 0EAD CD D9 0E     	call file_check_act ;проверка
 489+ 0EB0 DA 37 0E     	jp c,file_error
 490+ 0EB3
 491+ 0EB3 ED 4B CC 10  	ld bc,(file_size_tmp) ;размер
 492+ 0EB7 79           	ld a,c ;ba - количество байт для чтения
 493+ 0EB8
 494+ 0EB8              	R8FAT r8f08_FileRead	;читать файл
 494+ 0EB8 0E 08       >	ld	c,r8f08_FileRead
 494+ 0EBA CF          >	rst	#08
 494+ 0EBB 91          >	db	#91
 495+ 0EBC DA 37 0E     	jp c,file_error
 496+ 0EBF
 497+ 0EBF              	;ld bc,(file_size_tmp) ;размер
 498+ 0EBF B7           	or a
 499+ 0EC0 C9           	ret
 500+ 0EC1
 501+ 0EC1
 502+ 0EC1              ; A - file stream id
 503+ 0EC1              ; DE - length
 504+ 0EC1              ; HL - buffer
 505+ 0EC1              ; Returns:
 506+ 0EC1              ;   BC - actually written bytes
 507+ 0EC1              fwrite: ;
 508+ 0EC1                  ; push hl : pop ix
 509+ 0EC1                  ; esxCall ESX_FWRITE
 510+ 0EC1
 511+ 0EC1               ;запись файла fat
 512+ 0EC1 ED 53 CC 10   	ld (file_size_tmp),de
 513+ 0EC5
 514+ 0EC5 CD D9 0E     	call file_check_act ;проверка
 515+ 0EC8 DA 37 0E     	jp c,file_error
 516+ 0ECB
 517+ 0ECB ED 4B CC 10  	ld bc,(file_size_tmp) ;размер
 518+ 0ECF 79           	ld a,c ;ba - количество байт для записи
 519+ 0ED0
 520+ 0ED0              	R8FAT r8f09_FileWrite	;записать в файл
 520+ 0ED0 0E 09       >	ld	c,r8f09_FileWrite
 520+ 0ED2 CF          >	rst	#08
 520+ 0ED3 91          >	db	#91
 521+ 0ED4 DA 37 0E     	jp c,file_error
 522+ 0ED7
 523+ 0ED7              	;ld bc,(file_size_tmp) ;размер
 524+ 0ED7 B7           	or a
 525+ 0ED8 C9           	ret
 526+ 0ED9              ;---------------------------------------
 527+ 0ED9
 528+ 0ED9              file_check_act
 529+ 0ED9              ;проверка файла на актуальность
 530+ 0ED9              ;вых: A - id, DE - fcb
 531+ 0ED9 32 22 10     	ld (file_fat_id_cur),a ;сохранить id
 532+ 0EDC
 533+ 0EDC 3A CE 10     	ld a,(fs_fat_init_flag)
 534+ 0EDF B7           	or a
 535+ 0EE0 37           	scf
 536+ 0EE1 C8           	ret z ;выход если не инициализирована ФС
 537+ 0EE2
 538+ 0EE2 E5           	push hl
 539+ 0EE3 C5           	push bc
 540+ 0EE4 3A 22 10     	ld a,(file_fat_id_cur)
 541+ 0EE7 CD 0A 10     	call find_fcb_fat ;найти fcb
 542+ 0EEA EB           	ex de,hl ;fcb в de
 543+ 0EEB D5           	push de
 544+ 0EEC DD E1        	pop ix ;fcb
 545+ 0EEE C1           	pop bc
 546+ 0EEF 21 23 2C     	ld hl,proc_id_cur ;сравнить с кодом текущего процесса, чтобы имел доступ только к своему файлу
 547+ 0EF2 BE           	cp (hl)
 548+ 0EF3 E1           	pop hl
 549+ 0EF4 37           	scf
 550+ 0EF5 C0           	ret nz
 551+ 0EF6
 552+ 0EF6 B7           	or a
 553+ 0EF7 37           	scf
 554+ 0EF8 C8           	ret z ;выход если файл не открыт
 555+ 0EF9
 556+ 0EF9
 557+ 0EF9
 558+ 0EF9 3A 23 10     	ld a,(fs_fat_part_code_cur) ;сравнить какой раздел у файла и какой активный
 559+ 0EFC DD BE 1F     	cp (ix+#1f)
 560+ 0EFF C4 17 0E     	call nz,init_fs_fat_warm ;переинициировать
 561+ 0F02 C9           	ret
 562+ 0F03
 563+ 0F03
 564+ 0F03
 565+ 0F03              ;чтение секторов текущего каталога
 566+ 0F03              ; вх:
 567+ 0F03                   ; hl - буфер для чтения
 568+ 0F03                   ; de - относительный номер первого сектора каталога для чтения [0..nn]
 569+ 0F03                   ; b - максимальное количество секторов для чтения
 570+ 0F03              read_dir
 571+ 0F03              	;сначала сделаем текущей папку активного приложения
 572+ 0F03 D9           	exx
 573+ 0F04 3A 23 2C     	ld a,(proc_id_cur)
 574+ 0F07 CD 2D 0F     	call calc_dir_deskr
 575+ 0F0A EB           	ex de,hl
 576+ 0F0B 21 00 00     	ld hl,0
 577+ 0F0E                  ; hl - адрес пути (=#0000 - путь отсутствует)
 578+ 0F0E                  ; de - адрес дескриптора директории/файла
 579+ 0F0E              	R8FAT r8f05_OpenDir	;открыть текущий каталог
 579+ 0F0E 0E 05       >	ld	c,r8f05_OpenDir
 579+ 0F10 CF          >	rst	#08
 579+ 0F11 91          >	db	#91
 580+ 0F12 D9           	exx
 581+ 0F13
 582+ 0F13              	;теперь запрос
 583+ 0F13              	R8FAT r8f02_ReadDIR	;читать
 583+ 0F13 0E 02       >	ld	c,r8f02_ReadDIR
 583+ 0F15 CF          >	rst	#08
 583+ 0F16 91          >	db	#91
 584+ 0F17 C9               ret
 585+ 0F18
 586+ 0F18
 587+ 0F18
 588+ 0F18              ;вход в каталог/выход в родительский каталог
 589+ 0F18              ; вх: hl - адрес пути (=#0000 - путь отсутствует)
 590+ 0F18              ; de - адрес дескриптора директории/файла
 591+ 0F18              ; вых: a - если путь был указан, новая длина пути
 592+ 0F18              open_dir
 593+ 0F18 D5           	push de ;дескриптор
 594+ 0F19
 595+ 0F19              	R8FAT r8f05_OpenDir	;открыть
 595+ 0F19 0E 05       >	ld	c,r8f05_OpenDir
 595+ 0F1B CF          >	rst	#08
 595+ 0F1C 91          >	db	#91
 596+ 0F1D
 597+ 0F1D              	;скопировать дескриптор приложения
 598+ 0F1D F5           	push af
 599+ 0F1E 3A 23 2C     	ld a,(proc_id_cur)
 600+ 0F21 CD 2D 0F     	call calc_dir_deskr ;узнать дескриптор
 601+ 0F24 F1           	pop af
 602+ 0F25 EB           	ex de,hl
 603+ 0F26 E1           	pop hl ;дескриптор, отправленный приложеием
 604+ 0F27 01 20 00     	ld bc,32
 605+ 0F2A ED B0        	ldir
 606+ 0F2C C9           	ret
 607+ 0F2D
 608+ 0F2D
 609+ 0F2D
 610+ 0F2D
 611+ 0F2D
 612+ 0F2D
 613+ 0F2D              calc_dir_deskr ;определяет адрес дескриптора каталога
 614+ 0F2D 21 E2 10     	ld hl,dir_fat_deskr
 615+ 0F30 B7           	or a
 616+ 0F31 28 0B        	jr z,calc_dir_deskr_ex ;на выход если 0
 617+ 0F33 FE 09        	cp proc_max+1
 618+ 0F35 30 07        	jr nc,calc_dir_deskr_ex ;защита
 619+ 0F37 11 20 00     	ld de,fcb_fat_size
 620+ 0F3A 47           	ld b,a
 621+ 0F3B              calc_dir_deskr_cl
 622+ 0F3B 19           	add hl,de
 623+ 0F3C 10 FD        	djnz calc_dir_deskr_cl
 624+ 0F3E              calc_dir_deskr_ex
 625+ 0F3E C9           	ret
 626+ 0F3F
 627+ 0F3F
 628+ 0F3F
 629+ 0F3F
 630+ 0F3F              ; A - file stream id
 631+ 0F3F              ; DE - position hi
 632+ 0F3F              ; HL - position low
 633+ 0F3F              ; Returns:
 634+ 0F3F              ;
 635+ 0F3F              file_position: ;
 636+ 0F3F              ;установка/чтение указателя в файле (Переменная +#18-#1b fcb)
 637+ 0F3F 38 14        	jr c,file_position_set
 638+ 0F41              	;чтение
 639+ 0F41 CD D9 0E     	call file_check_act ;проверка
 640+ 0F44 DA 37 0E     	jp c,file_error
 641+ 0F47              	;прочитаем позицию
 642+ 0F47 DD 6E 18     	ld l,(ix+#18)
 643+ 0F4A DD 66 19     	ld h,(ix+#19)
 644+ 0F4D DD 5E 1A     	ld e,(ix+#1a)
 645+ 0F50 DD 56 1B     	ld d,(ix+#1b)
 646+ 0F53 B7           	or a
 647+ 0F54 C9           	ret
 648+ 0F55
 649+ 0F55
 650+ 0F55              file_position_set
 651+ 0F55              	;установка
 652+ 0F55 D5           	push de
 653+ 0F56 CD D9 0E     	call file_check_act ;проверка
 654+ 0F59 D1           	pop de
 655+ 0F5A DA 37 0E     	jp c,file_error
 656+ 0F5D              	;установим позицию
 657+ 0F5D DD 75 18     	ld (ix+#18),l
 658+ 0F60 DD 74 19     	ld (ix+#19),h
 659+ 0F63 DD 73 1A     	ld (ix+#1a),e
 660+ 0F66 DD 72 1B     	ld (ix+#1b),d
 661+ 0F69 B7           	or a
 662+ 0F6A C9           	ret
 663+ 0F6B
 664+ 0F6B
 665+ 0F6B
 666+ 0F6B
 667+ 0F6B              ; поиск файла или каталога по заданному пути, начиная от корневого, со входом в подкаталоги
 668+ 0F6B              ;вх:   hl - путь к файлу в формате ASCIZ (не более 250 байт, заканчивается нулем)
 669+ 0F6B              ;	  формат пути: \[DIR\DIR\..\DIR\]filename.ext
 670+ 0F6B              find_path
 671+ 0F6B              	;сначала сделаем текущей папку активного приложения
 672+ 0F6B F5           	push af
 673+ 0F6C E5           	push hl
 674+ 0F6D 3A 23 2C     	ld a,(proc_id_cur)
 675+ 0F70 CD 2D 0F     	call calc_dir_deskr
 676+ 0F73 EB           	ex de,hl
 677+ 0F74 21 00 00     	ld hl,0
 678+ 0F77                  ; hl - адрес пути (=#0000 - путь отсутствует)
 679+ 0F77                  ; de - адрес дескриптора директории/файла
 680+ 0F77              	R8FAT r8f05_OpenDir	;открыть текущий каталог
 680+ 0F77 0E 05       >	ld	c,r8f05_OpenDir
 680+ 0F79 CF          >	rst	#08
 680+ 0F7A 91          >	db	#91
 681+ 0F7B
 682+ 0F7B              	R8FAT r8f03_SetRoot ;перейти в корень диска
 682+ 0F7B 0E 03       >	ld	c,r8f03_SetRoot
 682+ 0F7D CF          >	rst	#08
 682+ 0F7E 91          >	db	#91
 683+ 0F7F
 684+ 0F7F E1           	pop hl
 685+ 0F80 F1           	pop af
 686+ 0F81              	;поиск пути в разделе
 687+ 0F81              	; xor	a
 688+ 0F81              	; dec	a ;установить текущим
 689+ 0F81              	R8FAT	r8f04_FindPath
 689+ 0F81 0E 04       >	ld	c,r8f04_FindPath
 689+ 0F83 CF          >	rst	#08
 689+ 0F84 91          >	db	#91
 690+ 0F85
 691+ 0F85              ; #04(04) (FindPath) поиск файла по заданному пути в текущем каталоге со входом в
 692+ 0F85              	; подкаталоги с проверкой синтаксиса (с установкой найденного каталога
 693+ 0F85              	; текущим)
 694+ 0F85              ; вх:  c=#04(04)
 695+ 0F85                   ; hl - путь к файлу в формате ASCIZ (не более 250 байт, заканчивается нулем)
 696+ 0F85              	  ; формат пути: \[DIR\DIR\..\DIR\]filename.ext
 697+ 0F85                   ; de - адрес буфера (#20 байт) для дескриптора найденного файла/каталога
 698+ 0F85                   ; a=#00/#FF - без установки каталога/с установкой найденного каталога текущим
 699+ 0F85
 700+ 0F85 C9           	ret
 701+ 0F86
 702+ 0F86
 703+ 0F86
 704+ 0F86
 705+ 0F86
 706+ 0F86
 707+ 0F86
 708+ 0F86
 709+ 0F86              ; получение длинного имени файла
 710+ 0F86              ;вх: hl - адрес буфера для имени
 711+ 0F86              ;    de - номер записи в текущем каталоге
 712+ 0F86              ;вых: hl - в буфере имя в формате ASCIZ (если длинное имя отсутсвует, то возвращается короткое имя)
 713+ 0F86              ; 	a - длина имени, с учетом нуля
 714+ 0F86              get_LFN
 715+ 0F86
 716+ 0F86
 717+ 0F86              	R8FAT r8f14_GetLFN
 717+ 0F86 0E 14       >	ld	c,r8f14_GetLFN
 717+ 0F88 CF          >	rst	#08
 717+ 0F89 91          >	db	#91
 718+ 0F8A              ; #14(20) (GetLFN) получение длинного имени файла
 719+ 0F8A              ; вх:  c=#14(20)
 720+ 0F8A                   ; hl - адрес буфера для имени
 721+ 0F8A                   ; de - номер записи в текущем каталоге
 722+ 0F8A              ; вых: cy=1 ошибка чтения -> a - код ошибки
 723+ 0F8A                   ; hl - в буфере имя в формате ASCIZ (если длинное имя отсутсвует, то
 724+ 0F8A                        ; возвращается короткое имя)
 725+ 0F8A                   ; a - длина имени, с учетом нуля
 726+ 0F8A                   ; de,bc - не определены
 727+ 0F8A
 728+ 0F8A C9           	 ret
 729+ 0F8B
 730+ 0F8B
 731+ 0F8B
 732+ 0F8B
 733+ 0F8B
 734+ 0F8B
 735+ 0F8B
 736+ 0F8B
 737+ 0F8B              ; A - file stream id
 738+ 0F8B              ; fsync:
 739+ 0F8B              ;     esxCall ESX_FSYNC
 740+ 0F8B                  ; ret
 741+ 0F8B
 742+ 0F8B
 743+ 0F8B              ; ; HL - name (name.ext)
 744+ 0F8B              ; ; Returns:
 745+ 0F8B              ; ; HL - name (name    e)
 746+ 0F8B              ; format_name ;подгоняет имя файла под стандарт trdos (8+1)
 747+ 0F8B
 748+ 0F8B              	; ;сначала попробуем убрать из пути подпапку, если она есть
 749+ 0F8B              	; ld (temp_hl),hl ;сохраним адрес исходного имени
 750+ 0F8B              	; ld b,#00 ;не больше 255 символов
 751+ 0F8B              ; format_name5
 752+ 0F8B              	; ld a,(hl)
 753+ 0F8B              	; cp "/" ;если есть подпапка
 754+ 0F8B              	; jr z,format_name_path_yep
 755+ 0F8B              	; ld a,(hl)
 756+ 0F8B              	; cp "." ;если ещё не дошли до расширения
 757+ 0F8B              	; jr nz,format_name6
 758+ 0F8B              	; ld hl,(temp_hl) ;если дошли до расширения, то путей нет, вернёмся на начало имени
 759+ 0F8B              	; jr format_name_7 ;на выход
 760+ 0F8B              ; format_name6
 761+ 0F8B              	; inc hl
 762+ 0F8B              	; djnz format_name5
 763+ 0F8B
 764+ 0F8B              ; format_name_path_yep ;нашли
 765+ 0F8B              	; inc hl ;пропустим знак "/"
 766+ 0F8B
 767+ 0F8B              ; format_name_7
 768+ 0F8B
 769+ 0F8B              	; push hl ;очистим место для нового имени
 770+ 0F8B              	; ld hl,f_name
 771+ 0F8B              	; ld de,f_name+1
 772+ 0F8B              	; ld (hl)," "
 773+ 0F8B              	; ld bc,8+1
 774+ 0F8B              	; ldir
 775+ 0F8B              	; ld (hl),0
 776+ 0F8B              	; ld bc,16-8-1-1
 777+ 0F8B              	; ldir
 778+ 0F8B              	; pop hl
 779+ 0F8B
 780+ 0F8B              	; ld bc,#09ff ;длина имени 9 символов
 781+ 0F8B              	; ld de,f_name ;куда
 782+ 0F8B              ; format_name2
 783+ 0F8B              	; ld a,(hl)
 784+ 0F8B              	; cp "."
 785+ 0F8B              	; jr nz,format_name1
 786+ 0F8B              	; ld de,f_name+8
 787+ 0F8B              	; inc hl
 788+ 0F8B              	; ldi ; и в конце расширение 3 буквы
 789+ 0F8B              	; ldi
 790+ 0F8B              	; ldi
 791+ 0F8B              	; ;ex de,hl ;сохраним адрес исходного расширения
 792+ 0F8B              	; jr format_name_e
 793+ 0F8B              ; format_name1
 794+ 0F8B              	; ldi
 795+ 0F8B              	; djnz format_name2
 796+ 0F8B
 797+ 0F8B              	; ;если имя длинное, пропустим лишнее до расширения
 798+ 0F8B              	; ld b,#00 ;не больше 255 символов
 799+ 0F8B              ; format_name3
 800+ 0F8B              	; ld a,(hl)
 801+ 0F8B              	; cp "."
 802+ 0F8B              	; jr nz,format_name4
 803+ 0F8B              	; ld de,f_name+8
 804+ 0F8B              	; inc hl
 805+ 0F8B              	; ldi ; и в конце расширение 3 буквы
 806+ 0F8B              	; ldi
 807+ 0F8B              	; ldi
 808+ 0F8B              	; ;ex de,hl ;сохраним адрес исходного расширения
 809+ 0F8B              	; jr format_name_e
 810+ 0F8B              ; format_name4
 811+ 0F8B              	; inc hl
 812+ 0F8B              	; djnz format_name3
 813+ 0F8B
 814+ 0F8B              ; format_name_e ;выход
 815+ 0F8B              	; ld hl,f_name ;вернём результат
 816+ 0F8B              	; ret
 817+ 0F8B
 818+ 0F8B              ; DE - trk/sec
 819+ 0F8B              ; B - sectors step
 820+ 0F8B              ; Returns:
 821+ 0F8B              ; DE - trk/sec
 822+ 0F8B              ; calc_next_pos		;вперёд на N секторов
 823+ 0F8B              			; ;ld b,4
 824+ 0F8B              			; ;ld  de,(#5ceb)
 825+ 0F8B              ; calc_next_pos2
 826+ 0F8B              			; inc e
 827+ 0F8B              			; ld a,e
 828+ 0F8B              			; cp 16
 829+ 0F8B              			; jr c,calc_next_pos1
 830+ 0F8B              			; inc d
 831+ 0F8B              			; ld e,0
 832+ 0F8B              ; calc_next_pos1
 833+ 0F8B              			; ;ld (#5ceb),de
 834+ 0F8B              			; djnz calc_next_pos2
 835+ 0F8B              			; ret
 836+ 0F8B
 837+ 0F8B
 838+ 0F8B              ;testt db "123.trd"
 839+ 0F8B              ; write_ima db "Select disk "
 840+ 0F8B              ; write_ima_d db "A: (E-" ;текущая буква
 841+ 0F8B              ; write_ima_e	db "D)> " ;последняя буква
 842+ 0F8B              		; db 13,10,0
 843+ 0F8B              ;prev_drive db 0 ;предыдущий номер дисковода
 844+ 0F8B 00           fs_drive_number_cur db 0 ;текущий диск/раздел
 845+ 0F8C
 846+ 0F8C              ; ; trdExt1 db ".trd", 0
 847+ 0F8C              ; ; trdExt2 db ".TRD", 0
 848+ 0F8C
 849+ 0F8C              ; ; sclExt1 db ".scl", 0
 850+ 0F8C              ; ; sclExt2 db ".SCL", 0
 851+ 0F8C
 852+ 0F8C              ; f_name ds 16 ;имя файла
 853+ 0F8C              ; f_r_cur_trk dw 	 0 ;текущие сектор-дорожка файла на чтение
 854+ 0F8C              ; f_r_len_sec db 0 ;длина файла на чтение в секторах
 855+ 0F8C              ; f_r_len dw 0;длина файла в байтах
 856+ 0F8C              ; f_r_flag db 0 ;флаг что открыт файл на чтение
 857+ 0F8C
 858+ 0F8C              ; f_w_cur_trk dw 	 0 ;текущие сектор-дорожка файла на запись
 859+ 0F8C              ; f_w_len_sec db 0 ;длина файла на запись в секторах
 860+ 0F8C              ; f_w_flag db 0 ;флаг что открыт файл на запись
 861+ 0F8C              ; f_w_len ds 4 ;длина записанных данных
 862+ 0F8C              ; write_end_flag db 0 ;флаг что нужно записать остаток
 863+ 0F8C
 864+ 0F8C              ; temp_bc dw 0 ;хранение регистра
 865+ 0F8C              ; temp_hl dw 0 ;хранение регистра
 866+ 0F8C              ; temp_hl2 dw 0 ;хранение регистра
 867+ 0F8C
 868+ 0F8C              ; sec_shift db 0 ;указатель на каком байте остановлена запись
 869+ 0F8C              ; sec_shift2 db 0 ;указатель на каком байте остановлена запись (остаток)
 870+ 0F8C              ; sec_part db 0 ;сколько секторов во второй порции для записи
 871+ 0F8C              ; sec_shift_flag db 0 ;флаг что буфер сектора не заполнен
 872+ 0F8C
 873+ 0F8C              ; ;секция scl
 874+ 0F8C              ; scl_sign db "SINCLAIR" ;метка
 875+ 0F8C              ; scl_que db 0 ;флаг запроса порции данных
 876+ 0F8C              ; scl_err db "SCL image error!",0
 877+ 0F8C              ; scl_parse_ret_adr dw 0; адрес возврата в цикл
 878+ 0F8C              ; scl_cat_cycl db 0 ;переменная цикла
 879+ 0F8C              ; scl_files db 0 ;всего файлов
 880+ 0F8C              ; scl_temp_hl dw 0;;хранение регистра
 881+ 0F8C              ; scl_temp_hl2 dw 0;
 882+ 0F8C              ; scl_temp_de dw 0;
 883+ 0F8C              ; scl_temp_bc dw 0;
 884+ 0F8C              ; cat_cur_adr dw 0;
 885+ 0F8C              ; ;scl end
 886+ 0F8C
 887+ 0F8C              ; ;секция сохранения любого файла
 888+ 0F8C              ; file_err db "Not enough space!",0
 889+ 0F8C              ; sec_cat db 0 ;сектор каталога
 890+ 0F8C              ; file_num db "0" ;номер части для больших файлов
 891+ 0F8C
 892+ 0F8C              	; ;по адресу #4000 шрифт
 893+ 0F8C              ; cat_buf equ #4800 ;буфер для кататога диска 9*256
 894+ 0F8C              ; sec_buf equ cat_buf + 9*256 ;буфер сектора для записи 256
 895+ 0F8C              ; scl_buf equ sec_buf + 512 ;промежуточный буфер 256
 896+ 0F8C              ; scl_buf2 equ scl_buf + 512 ;промежуточный буфер 256
 897+ 0F8C              ; ;общая ошибка с файлами
 898+ 0F8C              ; com_file_err db "File error!",0
 899+ 0F8C              ;com_file_err_flag db 0 ;общая ошибка
 900+ 0F8C
 901+ 0F8C
 902+ 0F8C
 903+ 0F8C
 904+ 0F8C              ;Раздел SMUC и SD ------------------------------------
 905+ 0F8C
 906+ 0F8C
 907+ 0F8C              ;список доступных разделов на винчестерах
 908+ 0F8C              ;7,=0/1 тип раздела MFS/FAT
 909+ 0F8C              ;6,=1 раздел есть
 910+ 0F8C              ;3,=0/1 Hdd/SD card
 911+ 0F8C              ;2,=0/1 для HDD master/slave
 912+ 0F8C              ;0..1,=?? номер раздела
 913+ 0F8C              ;
 914+ 0F8C 00 00 00...  typeDrive	ds 3*4+1
 915+ 0F99              ;typeDriveFAT	ds 3*4+1 ;список всех разделов FAT
 916+ 0F99 00           numDrives db 0 ;количество устройств
 917+ 0F9A              ;numDrivesFAT db 0 ;количество устройств FAT
 918+ 0F9A 00           next_lett db 0 ;следующая свободная буква диска
 919+ 0F9B
 920+ 0F9B              ;подсчет количества доступных разделов на всех устройствах
 921+ 0F9B              ;вых: hl,a - количество устройств
 922+ 0F9B              ;     typeDrives - сформированная таблица
 923+ 0F9B              ;     cy=1 не обнаружено ни одного устройства
 924+ 0F9B              ;
 925+ 0F9B              GetNumPart
 926+ 0F9B              ;
 927+ 0F9B D5           	push	de
 928+ 0F9C C5           	push	bc
 929+ 0F9D 21 8C 0F     	ld	hl,typeDrive
 930+ 0FA0 E5           	push	hl
 931+ 0FA1 AF           	xor	a
 932+ 0FA2 CD BC 0F     	call	proc_01			;HDD master
 933+ 0FA5 3E 01        	ld	a,#01
 934+ 0FA7 CD BC 0F     	call	proc_01			;HDD slave
 935+ 0FAA 3E 02        	ld	a,#02
 936+ 0FAC CD BC 0F     	call	proc_01			;SD card
 937+ 0FAF D1           	pop	de
 938+ 0FB0 B7           	or	a
 939+ 0FB1 ED 52        	sbc	hl,de			;количество разделов на HDD
 940+ 0FB3              	IFDEF	useTRD
 941+ 0FB3 ~            	 ld	a,l
 942+ 0FB3 ~            	 add	a,#04
 943+ 0FB3 ~            	 ld	l,a
 944+ 0FB3              	ELSE
 945+ 0FB3 7D           	 ld	a,l
 946+ 0FB4              	ENDIF
 947+ 0FB4 C1           	pop	bc
 948+ 0FB5 D1           	pop	de
 949+ 0FB6 32 99 0F     	ld	(numDrives),a
 950+ 0FB9 FE 01        	cp	1
 951+ 0FBB C9           	ret
 952+ 0FBC
 953+ 0FBC              ;- - - - - - - - - - - - - - - - - - - - - - - - - - - - - - - - - - - - - - -
 954+ 0FBC              ;формирование таблицы с доступными разделами на винчестере
 955+ 0FBC              ;вх:  a =#00 выбрать master
 956+ 0FBC              ;       =#01 выбрать slave
 957+ 0FBC              ;       =#02 выбрать SD card
 958+ 0FBC              ;     hl - адрес в таблице разделов typeDrives
 959+ 0FBC              ;вых: hl - новый адрес в таблице разделов typeDrives
 960+ 0FBC              ;
 961+ 0FBC 4F           proc_01	ld	c,a
 962+ 0FBD E5           	push	hl
 963+ 0FBE C5           	push	bc
 964+ 0FBF              	R8DOS	r8d2E_CngHDD
 964+ 0FBF 0E 2E       >	ld	c,r8d2E_CngHDD
 964+ 0FC1 CF          >	rst	#08
 964+ 0FC2 81          >	db	#81
 965+ 0FC3 38 04        	jr	c,goto001		;на текущем канале нет винчестера
 966+ 0FC5              	R8DOS	r8d2D_FindPart
 966+ 0FC5 0E 2D       >	ld	c,r8d2D_FindPart
 966+ 0FC7 CF          >	rst	#08
 966+ 0FC8 81          >	db	#81
 967+ 0FC9 C1           goto001	pop	bc
 968+ 0FCA E1           	pop	hl
 969+ 0FCB D8           	ret	c			;на текущем винчестере нет разделов
 970+ 0FCC 47           	ld	b,a
 971+ 0FCD 79           	ld	a,c
 972+ 0FCE 87           	add	a,a
 973+ 0FCF 87           	add	a,a
 974+ 0FD0 4F           	ld	c,a			;номер винчестера и первого раздела
 975+ 0FD1 78           	ld	a,b
 976+ 0FD2 06 04        	ld	b,#04
 977+ 0FD4 36 00        loop001	ld	(hl),#00
 978+ 0FD6 1F           	rra
 979+ 0FD7 30 0A        	jr	nc,goto002		;нет раздела
 980+ 0FD9              	IFDEF	useMFS
 981+ 0FD9 ~            	 ld	(hl),c
 982+ 0FD9 ~            	 set	6,(hl)			;=%01???hpp MFS
 983+ 0FD9 ~            	 rra
 984+ 0FD9 ~            	 jr	nc,goto003		;это MFS
 985+ 0FD9 ~            	 set	7,(hl)			;=%11???hpp это FAT
 986+ 0FD9              	ELSE
 987+ 0FD9 1F           	 rra
 988+ 0FDA 30 08        	 jr	nc,goto004		;это MFS
 989+ 0FDC 71           	 ld	(hl),c
 990+ 0FDD CB F6        	 set	6,(hl)			;раздел есть
 991+ 0FDF CB FE        	 set	7,(hl)			;=%11???hpp это FAT
 992+ 0FE1              	ENDIF
 993+ 0FE1 23           goto003	inc	hl
 994+ 0FE2 17           	rla
 995+ 0FE3 1F           goto002	rra
 996+ 0FE4 0C           goto004	inc	c
 997+ 0FE5 10 ED        	djnz	loop001
 998+ 0FE7 C9           	ret
 999+ 0FE8
1000+ 0FE8
1001+ 0FE8
1002+ 0FE8              ;конец секции SMUC и SD ----------------------------
1003+ 0FE8
1004+ 0FE8
1005+ 0FE8              find_empty_fcb_fat ;поиск свободного fcb для файла
1006+ 0FE8              	;выход hl - fcb; a - file_id
1007+ 0FE8 21 12 12     	ld hl,fcb_fat_table
1008+ 0FEB 0E 00        	ld c,0 ;номер файла
1009+ 0FED 06 08        	ld b,files_fat_max ;цикл
1010+ 0FEF              find_empty_fcb_fat_cl
1011+ 0FEF 7E           	ld a,(hl)
1012+ 0FF0 B7           	or a
1013+ 0FF1 28 06        	jr z,find_empty_fcb_fat_ex
1014+ 0FF3 23           	inc hl
1015+ 0FF4 0C           	inc c
1016+ 0FF5 10 F8        	djnz find_empty_fcb_fat_cl
1017+ 0FF7              	;не нашли свободного
1018+ 0FF7 37           	scf
1019+ 0FF8 C9           	ret
1020+ 0FF9              find_empty_fcb_fat_ex
1021+ 0FF9              	;вычислить адрес fcb
1022+ 0FF9 21 30 12     	ld hl,fcb_fat
1023+ 0FFC 0C           	inc c
1024+ 0FFD 0D           	dec c
1025+ 0FFE 28 07        	jr z,find_empty_fcb_fat_ex1
1026+ 1000 11 20 00     	ld de,fcb_fat_size
1027+ 1003 41           	ld b,c
1028+ 1004              find_empty_fcb_fat_cl2
1029+ 1004 19           	add hl,de
1030+ 1005 10 FD        	djnz find_empty_fcb_fat_cl2
1031+ 1007              find_empty_fcb_fat_ex1
1032+ 1007 79           	ld a,c ;file-id
1033+ 1008 B7           	or a
1034+ 1009 C9           	ret
1035+ 100A
1036+ 100A
1037+ 100A              find_fcb_fat ;поиск fcb файла по номеру
1038+ 100A              	;вх: a - id файла
1039+ 100A              	;вых: hl - fcb; a - значение из fcb_fat_table
1040+ 100A 21 30 12     	ld hl,fcb_fat
1041+ 100D B7           	or a
1042+ 100E 28 07        	jr z,find_fcb_fat_ex
1043+ 1010 47           	ld b,a
1044+ 1011 11 20 00     	ld de,fcb_fat_size
1045+ 1014              find_fcb_fat_cl
1046+ 1014              	;вычислить адрес fcb
1047+ 1014 19           	add hl,de
1048+ 1015 10 FD        	djnz find_fcb_fat_cl
1049+ 1017              find_fcb_fat_ex
1050+ 1017 E5           	push hl
1051+ 1018 21 12 12     	ld hl,fcb_fat_table
1052+ 101B 4F           	ld c,a
1053+ 101C 06 00        	ld b,0
1054+ 101E 09           	add hl,bc
1055+ 101F 7E           	ld a,(hl) ;вернуть флаг
1056+ 1020 E1           	pop hl
1057+ 1021 C9           	ret
1058+ 1022
1059+ 1022
1060+ 1022
1061+ 1022
1062+ 1022
1063+ 1022 00           file_fat_id_cur db 0 ;текущий файл id
1064+ 1023 00           fs_fat_part_code_cur db 0 ;текущий раздел
1065+ 1024 46 6F 75 6E  msg_fat_found db "Found FAT:",13,10,0
1065+ 1028 64 20 46 41
1065+ 102C 54 3A 0D 0A
1065+ 1030 00
1066+ 1031 46 6F 75 6E  msg_fat_found_os db "Found OS on disk: ",0
1066+ 1035 64 20 4F 53
1066+ 1039 20 6F 6E 20
1066+ 103D 64 69 73 6B
1066+ 1041 3A 20 00
1067+ 1044 46 41 54 20  msg_fat_not_found db "FAT not found",13,10,0
1067+ 1048 6E 6F 74 20
1067+ 104C 66 6F 75 6E
1067+ 1050 64 0D 0A 00
1068+ 1054 46 41 54 20  msg_fat_init_error db "FAT init_error",13,10,0
1068+ 1058 69 6E 69 74
1068+ 105C 5F 65 72 72
1068+ 1060 6F 72 0D 0A
1068+ 1064 00
1069+ 1065 46 69 6C 65  msg_file_error_general db "File error",13,10,0
1069+ 1069 20 65 72 72
1069+ 106D 6F 72 0D 0A
1069+ 1071 00
1070+ 1072 46 69 6C 65  msg_file_too_big db "File too_big",13,10,0
1070+ 1076 20 74 6F 6F
1070+ 107A 5F 62 69 67
1070+ 107E 0D 0A 00
1071+ 1081 46 69 6C 65  msg_file_not_found db "File not found",13,10,0
1071+ 1085 20 6E 6F 74
1071+ 1089 20 66 6F 75
1071+ 108D 6E 64 0D 0A
1071+ 1091 00
1072+ 1092 46 69 6C 65  msg_file_open_error db "File open error",13,10,0
1072+ 1096 20 6F 70 65
1072+ 109A 6E 20 65 72
1072+ 109E 72 6F 72 0D
1072+ 10A2 0A 00
1073+ 10A4 46 69 6C 65  msg_file_read_error db "File read error",13,10,0
1073+ 10A8 20 72 65 61
1073+ 10AC 64 20 65 72
1073+ 10B0 72 6F 72 0D
1073+ 10B4 0A 00
1074+ 10B6 44 69 72 65  msg_dir_not_found db "Directory not found",13,10,0
1074+ 10BA 63 74 6F 72
1074+ 10BE 79 20 6E 6F
1074+ 10C2 74 20 66 6F
1074+ 10C6 75 6E 64 0D
1074+ 10CA 0A 00
1075+ 10CC 00 00        file_size_tmp dw 0 ;временно
1076+ 10CE
1077+ 10CE 00           fs_fat_init_flag: db 0 ;флаг инициализации
1078+ 10CF 5C 4F 53 5A  OS_PathFAT db "\\OSZ",0 ;папка ОС
1078+ 10D3 00
1079+ 10D4
1080+ 10D4 66 61 74 5F  	db "fat_dir_descr:" ;дескрипторы открытых папок fat по одной на приложение
1080+ 10D8 64 69 72 5F
1080+ 10DC 64 65 73 63
1080+ 10E0 72 3A
1081+ 10E2 00 00 00...  dir_fat_deskr ds fcb_fat_size*(proc_max+1)	;дескрипторы папок
1082+ 1202
1083+ 1202
1084+ 1202 66 61 74 5F  	db "fat_files_table:"
1084+ 1206 66 69 6C 65
1084+ 120A 73 5F 74 61
1084+ 120E 62 6C 65 3A
1085+ 1212 00 00 00...  fcb_fat_table ds files_fat_max ;флаги открытия файлов
1086+ 121A 00 00 00...  fcb_trd_table ds files_trd_max ;флаги открытия файлов
1087+ 1222
1088+ 1222 66 61 74 5F  	db "fat_files_fcb:"
1088+ 1226 66 69 6C 65
1088+ 122A 73 5F 66 63
1088+ 122E 62 3A
1089+ 1230 00 00 00...  fcb_fat ds fcb_fat_size*files_fat_max ;для файлов fat
1090+ 1330 00 00 00...  fcb_trd ds fcb_fat_size*files_trd_max ;для файлов trd
1091+ 1430
1092+ 1430
1093+ 1430
1094+ 1430                  ENDMODULE
# file closed: Drv/zsfat.asm
2586  1430              	include Drv/DrvKey.main.a80 ;драйвер клавиатуры
# file opened: Drv/DrvKey.main.a80
   1+ 1430              ;ࠩ  
   2+ 1430              ;Driver Keyboard v2.10
   3+ 1430              ;(c) 2002-2024 LW aka PLM
   4+ 1430              ;
   5+ 1430              ;Date Creating: 10.07.2002
   6+ 1430              ;Last   Update: 17.01.2024
   7+ 1430              ;Last  Edition: 17.01.2024
   8+ 1430              ;
   9+ 1430              ;:
  10+ 1430              ;DrvKey.main.a80	-  䠩
  11+ 1430              ;DrvKey.asm.a80		- 楤
  12+ 1430              ;DrvKey.var.a80		- ६
  13+ 1430              ;DrvKey.info		- ଠ  ࠩ
  14+ 1430              ;DrvKey.lua.a80		- LUA
  15+ 1430              ;
  16+ 1430              ;------------------------------------------------------------------------------
  17+ 1430              ; 樨
  18+ 1430              ;	DEVICE 	ZXSPECTRUM128
  19+ 1430              ;	INCLUDE "DrvKey.lua.a80"
  20+ 1430              ;	PAGE	#XX
  21+ 1430              	MODULE	DrvKey
  22+ 1430
  23+ 1430              ;------------------------------------------------------------------------------
  24+ 1430              ;⠭ ࠩ
  25+ 1430
  26+ 1430              ; ᥬ஢:
  27+ 1430              AdrDrvKeyboard	equ $ ;#XXXX
  28+ 1430
  29+ 1430              ;   
  30+ 1430              keyLeft		equ #08
  31+ 1430              keyRight	equ #09
  32+ 1430              keyUp		equ #0B
  33+ 1430              keyDown		equ #0A
  34+ 1430
  35+ 1430              ;࠭ /
  36+ 1430              keyPageDown	equ #05
  37+ 1430              keyPageUp	equ #04
  38+ 1430
  39+ 1430              ;/砫 ப, insert
  40+ 1430              keyHome		equ #01
  41+ 1430              keyEnd		equ #03
  42+ 1430              keyInsert	equ #02
  43+ 1430
  44+ 1430              ;⥬ 
  45+ 1430              keyBreak	equ #18
  46+ 1430              keyEdit		equ #07
  47+ 1430              keyCaps		equ #06
  48+ 1430              keyBackSpace	equ #0C
  49+ 1430              keyDelete	equ #0F
  50+ 1430              keyEnter	equ #0D
  51+ 1430
  52+ 1430              ;CapsShift/SymbolShift   樨
  53+ 1430              keyCS		equ #1C
  54+ 1430              keySS		equ #1D
  55+ 1430              keyCsEnter	equ #19
  56+ 1430              keySsSpace	equ #1A		;tab
  57+ 1430              keySsEnter	equ #1B
  58+ 1430              keyExtMode	equ #0E
  59+ 1430
  60+ 1430              ;  ० EXT mode (cs+ss+key)
  61+ 1430              keyWordLeft	equ #10
  62+ 1430              keyWordRight	equ #11
  63+ 1430              keyGrf		equ #12
  64+ 1430              keyDelEnd	equ #13
  65+ 1430              keyDelBegin	equ #16
  66+ 1430              keyCsSsSpace	equ #14
  67+ 1430              keyCsSsEnter	equ #15
  68+ 1430              ;free code: #00,#17,#1E,#1F
  69+ 1430
  70+ 1430              ; 譨 ⠡  ᪫ 
  71+ 1430              ;OutsideGrfTable		equ #XXXX ;#0000
  72+ 1430              ;OutsideRus_jcuken	equ #XXXX ;#0000
  73+ 1430              ;OutsideRus_qwerty	equ #XXXX ;#0000
  74+ 1430
  75+ 1430              ;------------------------------------------------------------------------------
  76+ 1430              ;᫮ ࠭樨
  77+ 1430
  78+ 1430              ; ᯮ짮 /  48k
  79+ 1430              	;DEFINE	Used_ROM ;
  80+ 1430              	DEFINE	UseEXTkeys	;ᯮ짮 権 cs+ss+key
  81+ 1430              	DEFINE	CommandMode	;ᯮ짮  ०
  82+ 1430              	IFDEF	Used_ROM
  83+ 1430 ~            	UNDEFINE UseEXTkeys
  84+ 1430              	ENDIF
  85+ 1430
  86+ 1430              ;祭 ᪫ 
  87+ 1430              	DEFINE	GrfMode		;ᯮ짮 ᪫ grf
  88+ 1430              	DEFINE	RusMode		;ᯮ짮 ᪫ rus
  89+ 1430
  90+ 1430              ;祭 ⠡ ᪫
  91+ 1430              	DEFINE	TblKeyGrf_ver1
  92+ 1430              	DEFINE	Rus_jcuken
  93+ 1430              	DEFINE	Rus_qwerty
  94+ 1430
  95+ 1430              ;祭 ⠡ EXT+key (command mode)
  96+ 1430              ;  ᯮ짮 ⮫쪮 
  97+ 1430              	IFDEF	UseEXTkeys
  98+ 1430              	DEFINE	TblEXTkey_Test	;⮢ ᪫
  99+ 1430              ;	DEFINE	TblEXTkey_Word	; ZX-Word
 100+ 1430              	ENDIF
 101+ 1430
 102+ 1430              ;  ᯮ ७ ⠡ ᪫ 
 103+ 1430              	DEFINE	InsideGrfTable
 104+ 1430              	DEFINE	InsideRusTable
 105+ 1430
 106+ 1430              ;祭 㭪樨 ࠩ
 107+ 1430              ;	DEFINE  NoFuncDrvKey	; 楤 맮 㭪権 ࠩ
 108+ 1430              	DEFINE	NoCtlDrvKey	; ஢ન  ⢮ 㭪樨
 109+ 1430              	DEFINE	DrvKey_02	;⠭/祭 䫠 ࠩ
 110+ 1430              	DEFINE	DrvKey_03	;⠭ ਮ প  ⮯
 111+ 1430              	DEFINE	DrvKey_04	;祭 ਮ প  ⮯
 112+ 1430
 113+ 1430              ;------------------------------------------------------------------------------
 114+ 1430
 115+ 1430              	ORG	AdrDrvKeyboard
 116+ 1430              Start	INCLUDE	"DrvKey.asm.a80"
# file opened: Drv/DrvKey.asm.a80
   1++1430              ;楤  Keyboard Driver
   2++1430              ;䠩 DrvKey.asm.a80
   3++1430              ;
   4++1430              ;DriverKeyboard		맮 ࠩ 
   5++1430              ;FunctDrvKeyboard	맮 㭪樨 ࠩ 
   6++1430              ;GetCodesPressKey	祭  ⮩ 
   7++1430              ;GetRepeatDelays	祭 ਮ প  ⮯
   8++1430              ;SetRepeatDelays	⠭ ਮ প  ⮯
   9++1430              ;SetFlagsDriver		⠭/祭 䫠 ࠩ
  10++1430              ;ScanKeyboardDelay	   ⮬ ६ থ
  11++1430              ;ScanKeyboard		   
  12++1430              ;ScanAllKeys		   
  13++1430              ;
  14++1430              ;------------------------------------------------------------------------------
  15++1430              ;------------------------------------------------------------------------------
  16++1430              ;맮 ࠩ 
  17++1430              ;: 6,(FlgScanKeys) =1 -     
  18++1430              ;     hl=FlgScanKeys
  19++1430              ;     d - ᪠ ⮩ 
  20++1430              ;     a,e -   ⮩   ⥪饩 ᪫ 
  21++1430              ;       (Grf\Rus\Lat)  ⮬ ० CapsLock
  22++1430              ;     bc -  ।
  23++1430              ;
  24++1430 C3 68 14     @DriverKeyboard		jp	ScanKeyboardDelay
  25++1433
  26++1433              ;------------------------------------------------------------------------------
  27++1433              	IFNDEF	NoFuncDrvKey
  28++1433              ;맮 㭪樨 ࠩ 
  29++1433              ;:  c -  㭪樨 [#00..#04]
  30++1433              ;     hl,de,b,a - ࠬ 㭪樨
  31++1433              ;: ॣ ⠭  ⢥⢨  뢠 㭪樥
  32++1433              ;
  33++1433              @FunctDrvKeyboard
  34++1433              ;
  35++1433              	IFDEF	NoCtlDrvKey
  36++1433 E5           	 push	hl
  37++1434 F5           	 push	af
  38++1435 78           	 ld	a,b
  39++1436 06 00        	 ld	b,#00
  40++1438 21 45 14     	 ld	hl,TableAdrFunct
  41++143B 09           	 add	hl,bc
  42++143C 09           	 add	hl,bc
  43++143D 47           	 ld	b,a
  44++143E 7E           	 ld	a,(hl)
  45++143F 23           	 inc	hl
  46++1440 66           	 ld	h,(hl)
  47++1441 6F           	 ld	l,a
  48++1442 F1           	 pop	af
  49++1443 E3           	 ex	(sp),hl
  50++1444 C9           	 ret
  51++1445              	ELSE
  52++1445 ~            	 push	hl
  53++1445 ~            	 push	af
  54++1445 ~            	 ld	a,c
  55++1445 ~            	 cp	#05
  56++1445 ~            	 jr	nc,goto017		;騩  㭪樨
  57++1445 ~            	 ld	a,b
  58++1445 ~            	 ld	hl,TableAdrFunct
  59++1445 ~            	 ld	b,#00
  60++1445 ~            	 add	hl,bc
  61++1445 ~            	 add	hl,bc
  62++1445 ~            	 ld	b,a
  63++1445 ~            	 ld	a,(hl)
  64++1445 ~            	 inc	hl
  65++1445 ~            	 ld	h,(hl)
  66++1445 ~            	 ld	l,a
  67++1445 ~            	 and	h
  68++1445 ~            	 inc	a
  69++1445 ~            	 jr	z,goto017		;㭪  
  70++1445 ~            	 pop	af
  71++1445 ~            	 ex	(sp),hl
  72++1445 ~            	 ret
  73++1445 ~            goto017	 pop	af
  74++1445 ~            	 pop	hl
  75++1445 ~            	 ret
  76++1445              	ENDIF
  77++1445
  78++1445              	ENDIF
  79++1445
  80++1445              ;------------------------------------------------------------------------------
  81++1445              TableAdrFunct	ifused
  82++1445              ;⠡ ᮢ 㭪権 ࠩ
  83++1445              ;TableAdrFunct
  84++1445              ;
  85++1445 A4 14        		  dw ScanKeyboard
  86++1447 4F 14        		  dw GetCodesPressKey
  87++1449               IFDEF DrvKey_02
  87++1449 5F 14          dw SetFlagsDriver
  87++144B                 ELSE
  87++144B ~              dw #FFFF
  87++144B               ENDIF
  88++144B               IFDEF DrvKey_03
  88++144B 5A 14          dw SetRepeatDelays
  88++144D                ELSE
  88++144D ~              dw #FFFF
  88++144D               ENDIF
  89++144D               IFDEF DrvKey_04
  89++144D 55 14          dw GetRepeatDelays
  89++144F                ELSE
  89++144F ~              dw #FFFF
  89++144F               ENDIF
  90++144F              		endif
  91++144F
  92++144F              ;------------------------------------------------------------------------------
  93++144F              GetCodesPressKey	ifused
  94++144F              ;祭  ⮩ 
  95++144F              ;:  ----
  96++144F              ;: d - ᪠ ⮩ 
  97++144F              ;     a,e -   ⮩   ⥪饩 ᪫ 
  98++144F              ;       (Grf\Rus\Lat)  ⮬ ० CapsLock
  99++144F              ;
 100++144F              ;GetCodesPressKey
 101++144F              ;
 102++144F ED 5B 3C 17  	ld	de,(PrintCodePresKey)
 103++1453 7B           	ld	a,e
 104++1454 C9           	ret
 105++1455
 106++1455              	endif
 107++1455
 108++1455              ;------------------------------------------------------------------------------
 109++1455              GetRepeatDelays	ifused
 110++1455              ;祭 ਮ প  ⮯
 111++1455              ;:  ----
 112++1455              ;: d - ਮ ⮯
 113++1455              ;     e - প । ⮯஬
 114++1455              ;
 115++1455              ;GetRepeatDelays
 116++1455              ;
 117++1455 ED 5B 3A 17  	ld      de,(KeyRepeatDelay)
 118++1459 C9           	ret
 119++145A
 120++145A              	endif
 121++145A
 122++145A              ;------------------------------------------------------------------------------
 123++145A              SetRepeatDelays	ifused
 124++145A              ;⠭ ਮ প  ⮯
 125++145A              ;:  d - ਮ ⮯
 126++145A              ;     e - প । ⮯஬
 127++145A              ;: ॣ  
 128++145A              ;
 129++145A              ;SetRepeatDelays
 130++145A              ;
 131++145A ED 53 3A 17  	ld	(KeyRepeatDelay),de
 132++145E C9           	ret
 133++145F
 134++145F              	endif
 135++145F
 136++145F              ;------------------------------------------------------------------------------
 137++145F              SetFlagsDriver	ifused
 138++145F              ;e⠭/祭 䫠 ࠩ
 139++145F              ;:  d - ᪠ 䫠
 140++145F              ;     e - 塞 䫠
 141++145F              ;: a - 䫠 ࠩ
 142++145F              ;
 143++145F              ;SetFlagsDriver
 144++145F              ;
 145++145F 3A 38 17     	ld	a,(FlgScanKeys)
 146++1462 A2           	and	d
 147++1463 B3           	or	e
 148++1464 32 38 17     	ld	(FlgScanKeys),a
 149++1467 C9           	ret
 150++1468
 151++1468              	endif
 152++1468
 153++1468              ;------------------------------------------------------------------------------
 154++1468              ;   ⮬ ६ থ
 155++1468              ;:  (PrintCodePresKey) -   ⮩ 
 156++1468              ;: 6,(FlgScanKeys) =1 -     
 157++1468              ;     hl=FlgScanKeys
 158++1468              ;     d - ᪠ ⮩ 
 159++1468              ;     a,e -   ⮩   ⥪饩 ᪫ 
 160++1468              ;       (Grf\Rus\Lat)  ⮬ ० CapsLock
 161++1468              ;     bc -  ।
 162++1468              ;
 163++1468              ScanKeyboardDelay
 164++1468              ;
 165++1468 CD A4 14     	call	ScanKeyboard		;a=(PrintCodePresKey)
 166++146B 21 38 17     	ld	hl,FlgScanKeys
 167++146E CB F6        	set	6,(hl)
 168++1470              ;	ld	a,(PrintCodePresKey)
 169++1470 FE FF        	cp	#FF
 170++1472 28 24        	jr	z,goto012		;  
 171++1474 FE 00        cng_01	cp	#00
 172++1476 20 1E        	jr	nz,goto013		; 㣠 
 173++1478 ED 4B 3A 17  	ld	bc,(KeyRepeatDelay)
 174++147C 11 00 00     cng_02	ld	de,#0000
 175++147F 1C           	inc	e
 176++1480 20 01        	jr	nz,goto014
 177++1482 1D           	dec	e
 178++1483 7B           goto014	ld	a,e
 179++1484 B9           	cp	c
 180++1485 20 17        	jr	nz,goto015		;প  ⮯
 181++1487 1D           	dec	e
 182++1488 14           	inc	d
 183++1489 20 01        	jr	nz,goto016
 184++148B 15           	dec	d
 185++148C 7A           goto016	ld	a,d
 186++148D B8           	cp	b
 187++148E 38 0E        	jr	c,goto015
 188++1490 16 00        	ld	d,#00
 189++1492 CB B6        	res	6,(hl)
 190++1494 18 08        	jr	goto015
 191++1496 CB B6        goto013 res     6,(hl)
 192++1498 32 75 14     goto012	ld	(cng_01+1),a
 193++149B 11 00 00     	ld	de,#0000
 194++149E ED 53 7D 14  goto015	ld	(cng_02+1),de
 195++14A2 18 AB        	jr	GetCodesPressKey
 196++14A4
 197++14A4              ;------------------------------------------------------------------------------
 198++14A4              ;     樥 ⭮ 
 199++14A4              ;:  (FlgScanKeys) - 䫠
 200++14A4              ;: (ScanCodePresKey) - ᪠ ⮩ 
 201++14A4              ;     a -   ⮩ 
 202++14A4              ;     (PrintCodePresKey) -   ⮩   ⥪饩 ᪫
 203++14A4              ;        (Grf\Rus\Lat)  ⮬ ० CapsLock
 204++14A4              ;     7,(FlgScanKeys) =1 ⨬ 
 205++14A4              ;     hl,de,bc,a -  ।
 206++14A4              ;
 207++14A4              ScanKeyboard
 208++14A4              ;
 209++14A4              ; 
 210++14A4              	IFDEF	Used_ROM
 211++14A4 ~            	 call	#028E
 212++14A4              	ELSE
 213++14A4 CD 33 15     	 call	ScanAllKeys
 214++14A7              	ENDIF
 215++14A7 21 38 17     	ld	hl,FlgScanKeys
 216++14AA CB AE        	res	5,(hl)
 217++14AC CB BE        	res	7,(hl)
 218++14AE 28 04        	jr	z,goto006		; - 
 219++14B0 1E FF        goto021	ld	e,#FF
 220++14B2 CB FE        	set	7,(hl)			;⨬ 
 221++14B4
 222++14B4              ;室, ᫨     
 223++14B4 7B           goto006	ld	a,e
 224++14B5 32 3D 17     	ld	(ScanCodePresKey),a
 225++14B8 3C           	inc	a
 226++14B9 28 73        	jr	z,goto011
 227++14BB
 228++14BB              ;  ० ⮫쪮  cs+ss
 229++14BB E5           	push	hl
 230++14BC 4E           	ld	c,(hl)			;c=(FlgScanKeys)
 231++14BD              	IFDEF	CommandMode
 232++14BD CB 41        	 bit	0,c
 233++14BF 28 02        	 jr	z,goto018		;몫祭 Command Mode
 234++14C1              	 IFDEF	Used_ROM
 235++14C1 ~            	  ld	a,d
 236++14C1 ~            	  cp	#18
 237++14C1 ~            	  jr	z,goto019		; SS
 238++14C1              	 ELSE
 239++14C1 CB 8A        	  res	1,d			; SS
 240++14C3              	 ENDIF
 241++14C3              	ENDIF
 242++14C3
 243++14C3              ;塞    ⨭᪮ ᪫  ᪠ 
 244++14C3 7A           goto018	ld	a,d
 245++14C4              	IFDEF	Used_ROM
 246++14C4 ~            	 ld	hl,tableSSkeys
 247++14C4 ~            	 cp	#18
 248++14C4 ~            	 jr	z,goto007		; ⮩ ss
 249++14C4 ~            	 ld	hl,tableCSkeys
 250++14C4 ~            	 cp	#27
 251++14C4 ~            	 jr	z,goto007		; ⮩ cs
 252++14C4 ~            goto019	 ld	hl,tablePrnKeys
 253++14C4              	ELSE
 254++14C4 21 C8 15     	 ld	hl,tableSSkeys
 255++14C7 FE 02        	 cp	#02
 256++14C9 28 12        	 jr	z,goto007		; ⮩ ss
 257++14CB              	 IFDEF	UseEXTkeys
 258++14CB 21 F0 15     	  ld	hl,tableEXTKeys
 259++14CE CB E9        	  set	5,c			;  cs+ss
 260++14D0 30 0B        	  jr	nc,goto007		; ⮩ cs+ss
 261++14D2 CB A9        	  res	5,c
 262++14D4              	 ENDIF
 263++14D4 21 A0 15     	 ld	hl,tableCSkeys
 264++14D7 B7           	 or	a
 265++14D8 20 03        	 jr	nz,goto007		; ⮩ cs
 266++14DA 21 78 15     	 ld	hl,tablePrnKeys
 267++14DD              	ENDIF
 268++14DD 16 00        goto007	ld	d,#00
 269++14DF 19           	add	hl,de
 270++14E0 5E           	ld	e,(hl)			; 
 271++14E1 E1           	pop	hl
 272++14E2 71           	ld	(hl),c
 273++14E3 7B           	ld	a,e
 274++14E4 3C           	inc	a
 275++14E5 28 C9        	jr	z,goto021
 276++14E7              ;de -   ⮩   ⨭᪮ ᪫   ० Caps
 277++14E7
 278++14E7              ;᫨ 祭  ० ⠭ ᨬ  孨 ॣ
 279++14E7              	IFDEF	CommandMode
 280++14E7 79           	 ld	a,c
 281++14E8 E6 21        	 and	%00100001
 282++14EA 20 0D        	 jr	nz,goto020		;祭 Command Mode
 283++14EC              	ENDIF
 284++14EC
 285++14EC              ;४ ⭮   ⮬ ० CapsLock
 286++14EC 7B           	ld	a,e
 287++14ED CB 49        	bit	1,c
 288++14EF 28 13        	jr	z,goto008		;caps 몫祭
 289++14F1 FE 41        	cp	"A"
 290++14F3 38 0F        	jr	c,goto008
 291++14F5 FE 5B        	cp	"Z"+1
 292++14F7 38 09        	jr	c,goto009
 293++14F9              	IFDEF	CommandMode
 294++14F9 7B           goto020	 ld	a,e
 295++14FA              	ENDIF
 296++14FA FE 61        	cp	"a"
 297++14FC 38 06        	jr	c,goto008
 298++14FE FE 7B        	cp	"z"+1
 299++1500 30 02        	jr	nc,goto008
 300++1502 EE 20        goto009	xor	%00100000
 301++1504 5F           goto008	ld	e,a
 302++1505              ;de,a -   ⮩   ⨭᪮ ᪫
 303++1505
 304++1505              ; ८ࠧ, ᫨ 祭  ०
 305++1505              	IFDEF	CommandMode
 306++1505 79           	 ld	a,c
 307++1506 E6 21        	 and	%00100001
 308++1508 7B           	 ld	a,e
 309++1509 20 23        	 jr	nz,goto011		;祭 Command Mode
 310++150B              	ENDIF
 311++150B
 312++150B              ;⠭ ⭮   ᮮ⢥⢨  祭 ᪫: Grf\Rus\Lat
 313++150B              ;  grf ᪫
 314++150B              	IFDEF	GrfMode
 315++150B              	 IFDEF	InsideGrfTable
 316++150B FE 20        	  cp	#20
 317++150D 38 1F        	  jr	c,goto011
 318++150F              	 ENDIF
 319++150F 21 F8 15     	 ld	hl,TblKeyGrf
 320++1512 CB 51        	 bit	2,c
 321++1514 20 16        	 jr	nz,goto010		;祭 Grf
 322++1516              	ENDIF
 323++1516              ;  rus ᪫
 324++1516              	IFDEF	RusMode
 325++1516 CB 59        	 bit	3,c
 326++1518 28 14        	 jr	z,goto011		;᪫ rus 몫祭
 327++151A              	 IFDEF	InsideRusTable
 328++151A FE 20        	  cp	#20
 329++151C 38 10        	  jr	c,goto011
 330++151E              	 ENDIF
 331++151E              	 IFDEF	Rus_jcuken
 332++151E 21 B8 16     	  ld	hl,TblKeyRus_jcuken
 333++1521              	  IFDEF	Rus_qwerty
 334++1521 CB 61        	   bit	4,c
 335++1523 20 07        	   jr	nz,goto010		;祭 ᪫ Rus 㪥
 336++1525              	  ENDIF
 337++1525              	 ENDIF
 338++1525              	 IFDEF	Rus_qwerty
 339++1525 21 58 16     	  ld	hl,TblKeyRus_qwerty
 340++1528              	 ENDIF
 341++1528 18 02        	 jr	goto010
 342++152A              	ENDIF
 343++152A 18 02        	jr	goto011
 344++152C 19           goto010	add	hl,de
 345++152D 5E           	ld	e,(hl)
 346++152E              ;e -   ⮩   ⥪饩 ᪫  (Grf\Rus\Lat)
 347++152E              ;     ⮬ ० CapsLock
 348++152E
 349++152E 7B           goto011 ld      a,e
 350++152F 32 3C 17             ld      (PrintCodePresKey),a
 351++1532 C9                   ret
 352++1533
 353++1533              ;------------------------------------------------------------------------------
 354++1533              ScanAllKeys	ifused
 355++1533              ;    ( /  48k #028E)
 356++1533              ;ਬ砭: ⠡ ScanCode
 357++1533              ;Ŀ
 358++1533              ; 1  2  3  4  5  6  7  8  9  0 
 359++1533              ;#24#1C#14#0C#04#03#0B#13#1B#23
 360++1533              ;Ĵ
 361++1533              ; Q  W  Q  R  T  Y  U  I  O  P 
 362++1533              ;#25#1D#15#0D#05#02#0A#12#1A#22
 363++1533              ;Ĵ
 364++1533              ; A  S  D  F  G  h  J  K  L ent
 365++1533              ;#26#1E#16#0E#06#01#09#11#19#21
 366++1533              ;Ĵ
 367++1533              ;s  Z  X  C  V  B  N  M ss sp 
 368++1533              ;#27#1F#17#0F#07#00#08#10#18#20
 369++1533              ;
 370++1533              ;:  ----
 371++1533              ;: nz - ⨬ 
 372++1533              ;       hl,de,bc,a -  ।
 373++1533              ;     z  -       CS/SS    
 374++1533              ;       e =#FF -   
 375++1533              ;       0,d/c=1   c CS
 376++1533              ;       1,d/c=1   c SS
 377++1533              ;       e - ScanCode  ⮩ 
 378++1533              ;       a=#00
 379++1533              ;       hl,b -  ।
 380++1533              ;
 381++1533              ;ScanAllKeys
 382++1533              ;
 383++1533 2E 2F        	ld	l,#27+#08
 384++1535 11 FF FF     	ld	de,#FFFF
 385++1538 01 FF FE     	ld	bc,#FEFF
 386++153B
 387++153B              ;  ⠭ ⮢   ॣ c,d,e
 388++153B 78           loop003	ld	a,b
 389++153C DB FE        	in	a,(#FE)
 390++153E 2F           	cpl
 391++153F E6 1F        	and	#1F
 392++1541 28 0F        	jr	z,goto001
 393++1543 67           	ld	h,a
 394++1544 7D           	ld	a,l
 395++1545 0C           loop002	inc	c
 396++1546 C0           	ret	nz			;   
 397++1547 D6 08        loop001	sub	#08
 398++1549 CB 3C        	srl	h
 399++154B 30 FA        	jr	nc,loop001
 400++154D 4A           	ld	c,d
 401++154E 53           	ld	d,e
 402++154F 5F           	ld	e,a			; ⮩ 
 403++1550 20 F3        	jr	nz,loop002
 404++1552 2D           goto001	dec	l
 405++1553 CB 00        	rlc	b
 406++1555 38 E4        	jr	c,loop003
 407++1557              ;=key 1, d=key 2, e=key 3
 408++1557              ;=#FF, d=key 1, e=key 2
 409++1557              ;=#FF, d=#FF, e=key 1
 410++1557
 411++1557              ;஢ઠ 権 
 412++1557 79           	ld	a,c
 413++1558 3C           	inc	a
 414++1559 28 04        	jr	z,goto002		;    
 415++155B D6 28        	sub	#27+1
 416++155D C0           	ret	nz			;ࢠ   cs
 417++155E 3C           	inc	a
 418++155F 4F           goto002	ld	c,a			;0,c=0/1   cs/ cs
 419++1560 7A           	ld	a,d
 420++1561 3C           	inc	a
 421++1562 28 11        	jr	z,goto004		;   -> e - ᪠/#FF
 422++1564 FE 28        	cp	#27+1
 423++1566 28 0C        	jr	z,goto003
 424++1568 FE 19        	cp	#18+1
 425++156A 28 05        	jr	z,goto005		; ss
 426++156C 7B           	ld	a,e
 427++156D 5A           	ld	e,d
 428++156E FE 18        	cp	#18
 429++1570 C0           	ret	nz			;⨬ 
 430++1571 CB C9        goto005	set	1,c			; ss
 431++1573 0D           	dec	c
 432++1574 0C           goto003	inc	c
 433++1575 51           goto004	ld	d,c			;0,d=0/1 cs  /
 434++1576 AF           	xor	a			;1,d=0/1 ss  /
 435++1577 C9           	ret
 436++1578
 437++1578                      endif
 438++1578
 439++1578              ;==============================================================================
 440++1578              		ifused	tablePrnKeys
 441++1578              ;⠡  
 442++1578              ;cs - off
 443++1578              ;ss - off
 444++1578              ;
 445++1578 62 68 79 36  tablePrnKeys	db "bhy65tgv"	;#00-#07
 445++157C 35 74 67 76
 446++1580 6E 6A 75 37  		db "nju74rfc"	;#08-#0F
 446++1584 34 72 66 63
 447++1588 6D 6B 69 38  		db "mki83edx"	;#10-#17
 447++158C 33 65 64 78
 448++1590 1D           		db keySS	;#18
 449++1591 6C 6F 39 32  		db "lo92wsz"	;#19-#1F
 449++1595 77 73 7A
 450++1598 20           		db " "		;#20
 451++1599 0D           		db keyEnter	;#21
 452++159A 70 30 31 71  		db "p01qa"	;#22-#26
 452++159E 61
 453++159F 1C           		db keyCS	;#27
 454++15A0
 455++15A0              		endif
 456++15A0
 457++15A0              ;- - - - - - - - - - - - - - - - - - - - - - - - - - - - - - - - - - - - - - -
 458++15A0              		ifused	tableCSkeys
 459++15A0              ;⠡  
 460++15A0              ;cs - on
 461++15A0              ;ss - off
 462++15A0              ;
 463++15A0 42 48 59     tableCSkeys	db "BHY"	;#00-#02
 464++15A3 0A           		db keyDown	;#03
 465++15A4 08           		db keyLeft	;#04
 466++15A5 54 47 56     		db "TGV"	;#05-#07
 467++15A8 4E 4A 55     		db "NJU"	;#08-#0A
 468++15AB 0B           		db keyUp	;#0B
 469++15AC 05           		db keyPageDown	;#0C
 470++15AD 52 46 43     		db "RFC"	;#0D-#0F
 471++15B0 4D 4B 49     		db "MKI"	;#10-#12
 472++15B3 09           		db keyRight	;#13
 473++15B4 04           		db keyPageUp	;#14
 474++15B5 45 44 58     		db "EDX"	;#15-#17
 475++15B8 0E           		db keyExtMode	;#18
 476++15B9 4C 4F        		db "LO"		;#19-#1A
 477++15BB 0F           		db keyDelete	;#1B
 478++15BC 06           		db keyCaps	;#1C
 479++15BD 57 53 5A     		db "WSZ"	;#1D-#1F
 480++15C0 18           		db keyBreak	;#20
 481++15C1 19           		db keyCsEnter	;#21
 482++15C2 50           		db "P"		;#22
 483++15C3 0C           		db keyBackSpace	;#23
 484++15C4 07           		db keyEdit	;#24
 485++15C5 51 41        		db "QA"		;#25-#26
 486++15C7 1C           		db keyCS	;#27
 487++15C8
 488++15C8              		endif
 489++15C8
 490++15C8              ;- - - - - - - - - - - - - - - - - - - - - - - - - - - - - - - - - - - - - - -
 491++15C8              		ifused	tableSSkeys
 492++15C8              ;⠡  
 493++15C8              ;cs - off
 494++15C8              ;ss - on
 495++15C8              ;
 496++15C8 2A 5E 5B 26  tableSSkeys	db "*^[&%>}/"	;#00-#07
 496++15CC 25 3E 7D 2F
 497++15D0 2C 2D 5D 27  		db ",-]'$<{?"	;#08-#0F
 497++15D4 24 3C 7B 3F
 498++15D8 2E 2B 7F 28  		db ".+(#"	;#10-#14
 498++15DC 23
 499++15DD 03           		db keyEnd	;#15
 500++15DE 5C 60        		db #5C,#60	;#16-#17 (\`)
 501++15E0 1D           		db keySS	;#18
 502++15E1 3D 3B 29 40  		db "=;)@"	;#19-#1C
 503++15E5 02           		db keyInsert	;#1D
 504++15E6 7C 3A        		db "|:"		;#1E-#1F
 505++15E8 1A           		db keySsSpace	;#20
 506++15E9 1B           		db keySsEnter	;#21
 507++15EA 22           		db #22		;#22 (")
 508++15EB 5F 21        		db "_!"		;#23-#24
 509++15ED 01           		db keyHome	;#25
 510++15EE 7E           		db "~"		;#26
 511++15EF 0E           		db keyExtMode	;#27
 512++15F0
 513++15F0              		endif
 514++15F0
 515++15F0              ;- - - - - - - - - - - - - - - - - - - - - - - - - - - - - - - - - - - - - - -
 516++15F0              		ifused	tableEXTKeys
 517++15F0              ;⠡  , ᪫  ZX-Word
 518++15F0              ;cs - on
 519++15F0              ;ss - on
 520++15F0              ;
 521++15F0              tableEXTKeys
 522++15F0
 523++15F0              		IFDEF	TblEXTkey_Test	;⮢ ᪫
 524++15F0 42 48 59     		db "BHY"	;#00-#02
 525++15F3 03           		db keyEnd	;#03 key 6
 526++15F4 10           		db keyWordLeft	;#04 key 5
 527++15F5 54 47 56     		db "TGV"	;#05-#07
 528++15F8 4E 4A 55     		db "NJU"	;#08-#0A
 529++15FB 01           		db keyHome	;#0B key 7
 530++15FC FF           		db #FF		;#0C key 4
 531++15FD 52 46 43     		db "RFC"	;#0D-#0F
 532++1600 4D 4B 49     		db "MKI"	;#10-#12
 533++1603 11           		db keyWordRight	;#13 key 8
 534++1604 FF           		db #FF		;#14 key 3
 535++1605 45 44 58     		db "EDX"	;#15-#17
 536++1608 FF           		db #FF		;#18 key SS
 537++1609 4C 4F        		db "LO"		;#19-#1A
 538++160B 13           		db keyDelEnd	;#1B key 9
 539++160C FF           		db #FF		;#1C key 2
 540++160D 57 53 5A     		db "WSZ"	;#1D-#1F
 541++1610 14           		db keyCsSsSpace	;#20
 542++1611 15           		db keyCsSsEnter	;#21
 543++1612 50           		db "P"		;#22
 544++1613 16           		db keyDelBegin	;#23 key 0
 545++1614 12           		db keyGrf	;#24 key 1
 546++1615 51 41        		db "QA"		;#25-#26
 547++1617 FF           		db #FF		;#27 key CS
 548++1618              		ENDIF
 549++1618
 550++1618              		IFDEF	TblEXTkey_Word	; ZX-Word
 551++1618 ~            		db "BHY"	;#00-#02
 552++1618 ~            		db keyEnd	;#03 key 6
 553++1618 ~            		db keyWordLeft	;#04 key 5
 554++1618 ~            		db "TG",#FF	;#05-#07
 555++1618 ~            		db #FF,#FF,#FF	;#08-#0A
 556++1618 ~            		db keyHome	;#0B key 7
 557++1618 ~            		db #FF		;#0C key 4
 558++1618 ~            		db "RFC"	;#0D-#0F
 559++1618 ~            		db #FF,#FF,#FF	;#10-#12
 560++1618 ~            		db keyWordRight	;#13 key 8
 561++1618 ~            		db #FF		;#14 key 3
 562++1618 ~            		db "EDX"	;#15-#17
 563++1618 ~            		db #FF		;#18 key SS
 564++1618 ~            		db #FF,"O"	;#19-#1A
 565++1618 ~            		db keyDelete	;#1B key 9
 566++1618 ~            		db keyInsert	;#1C key 2
 567++1618 ~            		db #FF,#FF,"Z"	;#1D-#1F
 568++1618 ~            		db #FF		;#20
 569++1618 ~            		db #FF		;#21
 570++1618 ~            		db "P"		;#22
 571++1618 ~            		db keyBackSpace	;#23 key 0
 572++1618 ~            		db keyEdit	;#24 key 1
 573++1618 ~            		db "Q",#FF	;#25-#26
 574++1618 ~            		db #FF		;#27 key CS
 575++1618              		ENDIF
 576++1618
 577++1618              		endif
 578++1618
 579++1618              ;------------------------------------------------------------------------------
 580++1618              	IFDEF	GrfMode
 581++1618              	IFDEF	TblKeyGrf_ver1
 582++1618              	IFDEF	InsideGrfTable
 583++1618
 584++1618              ;᪠ ᪫: version 01
 585++1618              ;
 586++1618              TblKeyGrf	equ $-#20
 587++1618              ;
 588++1618              ;	db #00,#01,#02,#03,#04,#05,#06,#07
 589++1618              ;	db #08,#09,#0A,#0B,#0C,#0D,#0E,#0F
 590++1618              ;	db #10,#11,#12,#13,#14,#15,#16,#17
 591++1618              ;	db #18,#19,#1A,#1B,#1C,#1D,#1E,#1F
 592++1618 20 21 22 23  	db " !",#22,"#$%&'"
 592++161C 24 25 26 27
 593++1620 28 29 2A 2B  	db "()*+,-./"
 593++1624 2C 2D 2E 2F
 594++1628 30 31 32 33  	db "01234567"
 594++162C 34 35 36 37
 595++1630 38 39 3A 3B  	db "89:;<=>?"
 595++1634 3C 3D 3E 3F
 596++1638 40 C7 D4 BD  	db "@Խ"
 596++163C B6 B7 BA C6
 597++1640 D8 CD B5 B3  	db "͵۾"
 597++1644 DB BE CF DD
 598++1648 DE D6 C4 D7  	db "ո"
 598++164C D5 B8 F0 D2
 599++1650 D0 D1 D3 5B  	db "[",#5C,"]^_"
 599++1654 5C 5D 5E 5F
 600++1658 60 C3 C8 D9  	db "`ٴ"
 600++165C B4 BF B3 CC
 601++1660 CE CD B9 BA  	db "͹ʱ"
 601++1664 B0 BC CA B1
 602++1668 B2 DA C4 C5  	db "ɻ"
 602++166C C9 BB FB C2
 603++1670 C1 CB C0 7B  	db "{|}~"
 603++1674 7C 7D 7E 7F
 604++1678
 605++1678              	ELSE
 606++1678 ~            TblKeyGrf	equ	OutsideGrfTable
 607++1678              	ENDIF
 608++1678              	ENDIF
 609++1678              	ENDIF
 610++1678
 611++1678              ;------------------------------------------------------------------------------
 612++1678              	IFDEF	RusMode
 613++1678              	IFDEF	Rus_qwerty
 614++1678              	IFDEF	InsideRusTable
 615++1678
 616++1678              ;᪠ ᪫: 
 617++1678              ;
 618++1678              TblKeyRus_qwerty	equ $-#20
 619++1678              ;
 620++1678              ;	db #00,#01,#02,#03,#04,#05,#06,#07
 621++1678              ;	db #08,#09,#0A,#0B,#0C,#0D,#0E,#0F
 622++1678              ;	db #10,#11,#12,#13,#14,#15,#16,#17
 623++1678              ;	db #18,#19,#1A,#1B,#1C,#1D,#1E,#1F
 624++1678 20 21 22 23  	db " !",#22,"#$%&'"
 624++167C 24 25 26 27
 625++1680 28 29 2A 2B  	db "()*+,-./"
 625++1684 2C 2D 2E 2F
 626++1688 30 31 32 33  	db "01234567"
 626++168C 34 35 36 37
 627++1690 38 39 3A 3B  	db "89:;<=>?"
 627++1694 3C 3D 3E 3F
 628++1698 40 80 81 96  	db "@"
 628++169C 84 85 94 83
 629++16A0 95 88 89 8A  	db ""
 629++16A4 8B 8C 8D 8E
 630++16A8 8F 9F 90 91  	db ""
 630++16AC 92 93 86 82
 631++16B0 9C 9B 87 5B  	db "[",#5C,"]^"
 631++16B4 5C 5D 5E 9A
 632++16B8 9E A0 A1 E6  	db "椥"
 632++16BC A4 A5 E4 A3
 633++16C0 E5 A8 A9 AA  	db "娩"
 633++16C4 AB AC AD AE
 634++16C8 AF EF E0 E1  	db "㦢"
 634++16CC E2 E3 A6 A2
 635++16D0 EC EB A7 98  	db "맘"
 635++16D4 9D 99 97 7F
 636++16D8
 637++16D8              	ELSE
 638++16D8 ~            TblKeyRus_qwerty	equ	OutsideRus_qwerty
 639++16D8              	ENDIF
 640++16D8              	ENDIF
 641++16D8              	ENDIF
 642++16D8
 643++16D8              ;------------------------------------------------------------------------------
 644++16D8              	IFDEF	RusMode
 645++16D8              	IFDEF	Rus_jcuken
 646++16D8              	IFDEF	InsideRusTable
 647++16D8
 648++16D8              ;᪠ ᪫: 㪥
 649++16D8              ;
 650++16D8              TblKeyRus_jcuken	equ	$-#20
 651++16D8              ;
 652++16D8              ;	db #00,#01,#02,#03,#04,#05,#06,#07
 653++16D8              ;	db #08,#09,#0A,#0B,#0C,#0D,#0E,#0F
 654++16D8              ;	db #10,#11,#12,#13,#14,#15,#16,#17
 655++16D8              ;	db #18,#19,#1A,#1B,#1C,#1D,#1E,#1F
 656++16D8 20 21 22 23  	db " !",#22,"#$%&'"
 656++16DC 24 25 26 27
 657++16E0 28 29 2A 2B  	db "()*+,-./"
 657++16E4 2C 2D 2E 2F
 658++16E8 30 31 32 33  	db "01234567"
 658++16EC 34 35 36 37
 659++16F0 38 39 3A 3B  	db "89:;<=>?"
 659++16F4 3C 3D 3E 3F
 660++16F8 9E 94 88 91  	db ""
 660++16FC 82 93 80 8F
 661++1700 90 98 8E 8B  	db ""
 661++1704 84 9C 92 99
 662++1708 87 89 8A 9B  	db ""
 662++170C 85 83 8C 96
 663++1710 97 8D 9F 95  	db ""
 663++1714 9D 86 81 9A
 664++1718 EE E4 A8 E1  	db "㠯"
 664++171C A2 E3 A0 AF
 665++1720 E0 E8 AE AB  	db "讫"
 665++1724 A4 EC E2 E9
 666++1728 A7 A9 AA EB  	db "륣"
 666++172C A5 A3 AC E6
 667++1730 E7 AD EF E5  	db ""
 667++1734 ED A6 A1 7F
 668++1738
 669++1738              	ELSE
 670++1738 ~            TblKeyRus_jcuken	equ	OutsideRus_jcuken
 671++1738              	ENDIF
 672++1738              	ENDIF
 673++1738              	ENDIF
 674++1738
 675++1738              ;------------------------------------------------------------------------------
 676++1738              	ifused	TblKeyLat
 677++1738 ~            ;⠭⭠ ⨭᪠ ᪫
 678++1738 ~            ;
 679++1738 ~            TblKeyLat	equ	$-#20
 680++1738 ~            ;
 681++1738 ~            ;	db #00,#01,#02,#03,#04,#05,#06,#07
 682++1738 ~            ;	db #08,#09,#0A,#0B,#0C,#0D,#0E,#0F
 683++1738 ~            ;	db #10,#11,#12,#13,#14,#15,#16,#17
 684++1738 ~            ;	db #18,#19,#1A,#1B,#1C,#1D,#1E,#1F
 685++1738 ~            	db " !",""","#$%&'"
 686++1738 ~            	db "()*+,-./"
 687++1738 ~            	db "01234567"
 688++1738 ~            	db "89:;<=>?"
 689++1738 ~            	db "@ABCDEFG"
 690++1738 ~            	db "HIJKLMNO"
 691++1738 ~            	db "PQRSTUVW"
 692++1738 ~            	db "XYZ[\]^_"
 693++1738 ~            	db "`abcdefg"
 694++1738 ~            	db "hijklmno"
 695++1738 ~            	db "pqrstuvw"
 696++1738 ~            	db "xyz{|}~"
 697++1738 ~
 698++1738              	endif
 699++1738
 700++1738              ;==============================================================================
 701++1738
# file closed: Drv/DrvKey.asm.a80
 117+ 1738              	INCLUDE	"DrvKey.var.a80"
# file opened: Drv/DrvKey.var.a80
   1++1738              ;६ Keyboard Driver
   2++1738              ;䠩 DrvKey.var.a80
   3++1738              ;
   4++1738              ;䫠 ࠩ
   5++1738              ;7,=1     
   6++1738              ;6,=1     
   7++1738              ;5,=1 ᨬ  ० cs+ss+key
   8++1738              ;4,=1/0 Rus 㪥/Rus 
   9++1738              ;3,=1/0 Rus/Lat
  10++1738              ;2,=1/0 Grf on/off
  11++1738              ;1,=1/0 CapsLock on/off
  12++1738              ;0,=1/0 Command on/off
  13++1738 30           FlgScanKeys     db %00110000
  14++1739 00           		db %00000000	;१
  15++173A
  16++173A              ;稭 প  ⮯
  17++173A 0F           KeyRepeatDelay    db #0F
  18++173B              ;ਮ ⮯
  19++173B 05           KeyRepeatPeriod   db #05
  20++173C
  21++173C              ;  ⮩   ⥪饩 ᪫  (Grf\Rus\Lat)
  22++173C              ;   ⮬ ० CapsLock
  23++173C 00           PrintCodePresKey  db #00
  24++173D              ;᪠ ⮩ 
  25++173D 00           ScanCodePresKey   db #00
  26++173E
  27++173E
# file closed: Drv/DrvKey.var.a80
 118+ 173E              End	DISPLAY	"Lenght DrvKey = ",/A,End-Start
 119+ 173E              ;	SAVEBIN	"!bin/drvkeys.bin",Start,End-Start
 120+ 173E              	ENDMODULE
 121+ 173E
# file closed: Drv/DrvKey.main.a80
2587  173E              	include player.asm ;плеер AY, TS
# file opened: player.asm
   1+ 173E              ;Universal PT2'n'PT3 Turbo Sound player for ZX Spectrum
   2+ 173E              ;(c)2004-2007 S.V.Bulba <vorobey@mail.khstu.ru>
   3+ 173E              ;Specially for AlCo
   4+ 173E              ;http://bulba.untergrund.net/ (http://bulba.at.kz/)
   5+ 173E              	MODULE VTPL
   6+ 173E              ;Release number
   7+ 173E              Release EQU "0"
   8+ 173E              ;Conditional assembly
   9+ 173E              ;1) Current position counters at (Vars1+0) and (Vars2+0)
  10+ 173E              CurPosCounter=0
  11+ 173E              ;2) Allow channels allocation bits at (START+10)
  12+ 173E              ACBBAC=0
  13+ 173E              ;3) Allow loop checking and disabling
  14+ 173E              LoopChecker=1
  15+ 173E              ;4) Insert official identificator
  16+ 173E              Id=0
  17+ 173E              ;5) Set IY for correct return to ZX Basic
  18+ 173E              Basic=1
  19+ 173E
  20+ 173E              ;Features
  21+ 173E              ;--------
  22+ 173E              ;-Can be compiled at any address (i.e. no need rounding ORG
  23+ 173E              ; address).
  24+ 173E              ;-Variables (VARS) can be located at any address (not only after
  25+ 173E              ; code block).
  26+ 173E              ;-INIT subprogram checks PT3-module version and rightly
  27+ 173E              ; generates both note and volume tables outside of code block
  28+ 173E              ; (in VARS).
  29+ 173E              ;-Two portamento (spc. command 3xxx) algorithms (depending of
  30+ 173E              ; PT3 module version).
  31+ 173E              ;-New 1.XX and 2.XX special command behaviour (only for PT v3.7
  32+ 173E              ; and higher).
  33+ 173E              ;-Any Tempo value are accepted (including Tempo=1 and Tempo=2).
  34+ 173E              ;-TS modes: 2xPT3, 2xPT2 and PT v3.7 TS standard.
  35+ 173E              ;-Fully compatible with Ay_Emul PT3 and PT2 players codes.
  36+ 173E              ;-See also notes at the end of this source code.
  37+ 173E
  38+ 173E              ;Limitations
  39+ 173E              ;-----------
  40+ 173E              ;-Can run in RAM only (self-modified code is used).
  41+ 173E              ;-PT2 position list must be end by #FF marker only.
  42+ 173E
  43+ 173E              ;Warning!!! PLAY subprogram can crash if no module are loaded
  44+ 173E              ;into RAM or INIT subprogram was not called before.
  45+ 173E
  46+ 173E              ;Call MUTE or INIT one more time to mute sound after stopping
  47+ 173E              ;playing
  48+ 173E
  49+ 173E              ;Test codes (commented)
  50+ 173E              ;	LD A,32 ;SinglePT3(TS if TSPT3.7),ABC,Looped
  51+ 173E              ;	LD (START+10),A
  52+ 173E              ;	LD HL,#8000 ;Mod1
  53+ 173E              ;	LD DE,#A000 ;Mod2 (optional)
  54+ 173E              ;	CALL START+3
  55+ 173E              ;	EI
  56+ 173E              ;_LP	HALT
  57+ 173E              ;	CALL START+5
  58+ 173E              ;	XOR A
  59+ 173E              ;	IN A,(#FE)
  60+ 173E              ;	CPL
  61+ 173E              ;	AND 15
  62+ 173E              ;	JR Z,_LP
  63+ 173E              ;	JR START+8
  64+ 173E
  65+ 173E              TonA	EQU 0
  66+ 173E              TonB	EQU 2
  67+ 173E              TonC	EQU 4
  68+ 173E              Noise	EQU 6
  69+ 173E              Mixer	EQU 7
  70+ 173E              AmplA	EQU 8
  71+ 173E              AmplB	EQU 9
  72+ 173E              AmplC	EQU 10
  73+ 173E              Env	EQU 11
  74+ 173E              EnvTp	EQU 13
  75+ 173E
  76+ 173E              ;Entry and other points
  77+ 173E              ;START initialize playing of modules at MDLADDR (single module)
  78+ 173E              ;START+3 initialization with module address in HL and DE (TS)
  79+ 173E              ;START+5 play one quark
  80+ 173E              ;START+8 mute
  81+ 173E              ;START+10 setup and status flags
  82+ 173E
  83+ 173E              START:
  84+ 173E 21 00 C0     	LD HL,outputBuffer ;DE - address of 2nd module for TS
  85+ 1741 18 3C        	JR INIT
  86+ 1743 C3 A2 1F     	JP PLAY
  87+ 1746 18 25        	JR MUTE
  88+ 1748 00           SETUP	DB 0 ;set bit0, if you want to play without looping
  89+ 1749              	     ;(optional);
  90+ 1749              	     ;set bit1 for PT2 and reset for PT3 before
  91+ 1749              	     ;calling INIT;
  92+ 1749              	     ;bits2-3: %00-ABC, %01-ACB, %10-BAC (optional);
  93+ 1749              	     ;bits4-5: %00-no TS, %01-2 modules TS, %10-
  94+ 1749              	     ;autodetect PT3 TS-format by AlCo (PT 3.7+);
  95+ 1749              	     ;Remark: old PT3 TS-format by AlCo (PT 3.6) is not
  96+ 1749              	     ;documented and must be converted to new standard.
  97+ 1749              	     ;bit6 is set each time, when loop point of 2nd TS
  98+ 1749              	     ;module is passed (optional).
  99+ 1749              	     ;bit7 is set each time, when loop point of 1st TS
 100+ 1749              	     ;or of single module is passed (optional).
 101+ 1749
 102+ 1749              ;Identifier
 103+ 1749              	IF Id
 104+ 1749 ~            	DB "=UniPT2/PT3/TS-Player r.",Release,"="
 105+ 1749              	ENDIF
 106+ 1749
 107+ 1749              	IF LoopChecker
 108+ 1749 21 48 17     CHECKLP	LD HL,SETUP
 109+ 174C FD CB 9E 46  	BIT 0,(IY-100+VRS.ModNum)
 110+ 1750 28 04        	JR Z,CHL1
 111+ 1752 CB F6        	SET 6,(HL)
 112+ 1754 18 02        	JR CHL2
 113+ 1756 CB FE        CHL1	SET 7,(HL)
 114+ 1758 CB 46        CHL2	BIT 0,(HL)
 115+ 175A C8           	RET Z
 116+ 175B E1           	POP HL
 117+ 175C FD 34 09     	INC (IY-100+VRS.DelyCnt)
 118+ 175F FD 34 BA     	INC (IY-100+VRS.ChanA+CHP.NtSkCn)
 119+ 1762 AF           	XOR A
 120+ 1763 FD 77 1D     	LD (IY-100+VRS.AYREGS+AmplA),A
 121+ 1766 FD 77 1E     	LD (IY-100+VRS.AYREGS+AmplB),A
 122+ 1769 FD 77 1F     	LD (IY-100+VRS.AYREGS+AmplC),A
 123+ 176C C9           	RET
 124+ 176D              	ENDIF
 125+ 176D
 126+ 176D AF           MUTE: XOR A
 127+ 176E 67           	LD H,A
 128+ 176F 6F           	LD L,A
 129+ 1770 32 F7 20     	LD (VARS1+VRS.AYREGS+AmplA),A
 130+ 1773 22 F8 20     	LD (VARS1+VRS.AYREGS+AmplB),HL
 131+ 1776 32 7E 21     	LD (VARS2+VRS.AYREGS+AmplA),A
 132+ 1779 22 7F 21     	LD (VARS2+VRS.AYREGS+AmplB),HL
 133+ 177C C3 BA 1F     	JP ROUT
 134+ 177F
 135+ 177F              INIT:
 136+ 177F              ;HL - AddressOfModule
 137+ 177F              ;DE - AddresOf2ndModule
 138+ 177F D5           	PUSH DE
 139+ 1780 E5           	PUSH HL
 140+ 1781 21 75 20     	LD HL,VARS
 141+ 1784 36 00        	LD (HL),0
 142+ 1786 11 76 20     	LD DE,VARS+1
 143+ 1789 01 0E 01     	LD BC,VAR0END-VARS-1
 144+ 178C ED B0        	LDIR
 145+ 178E 23           	INC HL
 146+ 178F 22 D8 20     	LD (VARS1+VRS.AdInPtA),HL ;ptr to zero
 147+ 1792 22 5F 21     	LD (VARS2+VRS.AdInPtA),HL
 148+ 1795
 149+ 1795 E1           	POP HL
 150+ 1796 FD 21 DA 20  	LD IY,VARS1+100
 151+ 179A 3A 48 17     	LD A,(START+10)
 152+ 179D E6 02        	AND 2
 153+ 179F C2 28 18     	JP NZ,I_PT2
 154+ 17A2
 155+ 17A2 CD 75 19     	CALL INITPT3
 156+ 17A5 21 18 1F     	LD HL,(e_-SamCnv-2)*256+#18
 157+ 17A8 22 48 1D     	LD (SamCnv),HL
 158+ 17AB 3E BA        	LD A,#BA
 159+ 17AD 32 13 1D     	LD (OrnCP),A
 160+ 17B0 32 3F 1D     	LD (SamCP),A
 161+ 17B3 3E 7B        	LD A,#7B
 162+ 17B5 32 16 1D     	LD (OrnLD),A
 163+ 17B8 32 42 1D     	LD (SamLD),A
 164+ 17BB 3E 87        	LD A,#87
 165+ 17BD 32 39 1D     	LD (SamClc2),A
 166+ 17C0 E1           	POP HL
 167+ 17C1              	;Use version and ton table of 1st module
 168+ 17C1 DD 7E A9     	LD A,(IX+13-100) ;EXTRACT VERSION NUMBER
 169+ 17C4 D6 30        	SUB #30
 170+ 17C6 38 04        	JR C,L20
 171+ 17C8 FE 0A        	CP 10
 172+ 17CA 38 02        	JR C,L21
 173+ 17CC 3E 06        L20	LD A,6
 174+ 17CE 32 E6 1B     L21	LD (Version),A
 175+ 17D1 F5           	PUSH AF ;VolTable version
 176+ 17D2 FE 04        	CP 4
 177+ 17D4 DD 7E FF     	LD A,(IX+99-100) ;TONE TABLE NUMBER
 178+ 17D7 17           	RLA
 179+ 17D8 E6 07        	AND 7
 180+ 17DA F5           	PUSH AF ;NoteTable number
 181+ 17DB
 182+ 17DB FD 21 61 21  	LD IY,VARS2+100
 183+ 17DF 3A 48 17     	LD A,(START+10)
 184+ 17E2 E6 30        	AND 48
 185+ 17E4 28 37        	JR Z,NOTS
 186+ 17E6 FE 10        	CP 16
 187+ 17E8 28 27        	JR Z,TwoPT3s
 188+ 17EA 3A E6 1B     	LD A,(Version)
 189+ 17ED FE 07        	CP 7
 190+ 17EF 38 2C        	JR C,NOTS
 191+ 17F1 DD 7E FE     	LD A,(IX+98-100) ;ALCO TS MARKER
 192+ 17F4 FE 20        	CP #20
 193+ 17F6 28 25        	JR Z,NOTS
 194+ 17F8 21 76 20     	LD HL,VARS1
 195+ 17FB 11 FD 20     	LD DE,VARS2
 196+ 17FE 01 87 00     	LD BC,VRS
 197+ 1801 ED B0        	LDIR
 198+ 1803 FD CB 9E CE  	SET 1,(IY-100+VRS.ModNum)
 199+ 1807 4F           	LD C,A
 200+ 1808 87           	ADD A,A
 201+ 1809 81           	ADD A,C
 202+ 180A D6 02        	SUB 2
 203+ 180C 32 AD 1E     	LD (TSSub),A
 204+ 180F 18 03        	JR AlCoTS_
 205+ 1811 CD 75 19     TwoPT3s	CALL INITPT3
 206+ 1814 3E 01        AlCoTS_	LD A,1
 207+ 1816 32 75 20     	LD (is_ts),A
 208+ 1819 FD CB 9E C6  	SET 0,(IY-100+VRS.ModNum)
 209+ 181D
 210+ 181D 01 32 1B     NOTS	LD BC,PT3PD
 211+ 1820 21 00 00     	LD HL,0
 212+ 1823 11 3D 20     	LD DE,PT3EMPTYORN
 213+ 1826 18 48        	JR INITCOMMON
 214+ 1828
 215+ 1828 CD AD 19     I_PT2	CALL INITPT2
 216+ 182B 21 CB 51     	LD HL,#51CB
 217+ 182E 22 48 1D     	LD (SamCnv),HL
 218+ 1831 3E BB        	LD A,#BB
 219+ 1833 32 13 1D     	LD (OrnCP),A
 220+ 1836 32 3F 1D     	LD (SamCP),A
 221+ 1839 3E 7A        	LD A,#7A
 222+ 183B 32 16 1D     	LD (OrnLD),A
 223+ 183E 32 42 1D     	LD (SamLD),A
 224+ 1841 3E 80        	LD A,#80
 225+ 1843 32 39 1D     	LD (SamClc2),A
 226+ 1846 E1           	POP HL
 227+ 1847 3E 05        	LD A,5
 228+ 1849 32 E6 1B     	LD (Version),A
 229+ 184C F5           	PUSH AF
 230+ 184D 3E 02        	LD A,2
 231+ 184F F5           	PUSH AF
 232+ 1850
 233+ 1850 3A 48 17     	LD A,(START+10)
 234+ 1853 E6 30        	AND 48
 235+ 1855 28 10        	JR Z,NOTS2
 236+ 1857
 237+ 1857 FD 21 61 21  	LD IY,VARS2+100
 238+ 185B 3E 01        	LD A,1
 239+ 185D 32 75 20     	LD (is_ts),A
 240+ 1860 FD CB 9E C6  	SET 0,(IY-100+VRS.ModNum)
 241+ 1864 CD AD 19     	CALL INITPT2
 242+ 1867
 243+ 1867 01 6C 1A     NOTS2	LD BC,PT2PD
 244+ 186A 21 87 86     	LD HL,#8687
 245+ 186D 11 93 21     	LD DE,PT2EMPTYORN
 246+ 1870
 247+ 1870              INITCOMMON
 248+ 1870
 249+ 1870              	IF Basic
 250+ 1870 FD 21 3A 5C  	LD IY,#5C3A
 251+ 1874              	ENDIF
 252+ 1874
 253+ 1874 ED 43 1D 1A  	LD (PTDEC),BC
 254+ 1878 22 AF 1E     	LD (PsCalc),HL
 255+ 187B D5           	PUSH DE
 256+ 187C
 257+ 187C              ;note table data depacker
 258+ 187C              ;(c) Ivan Roshin
 259+ 187C 11 40 20     	LD DE,T_PACK
 260+ 187F 01 E5 21     	LD BC,T1_+(2*49)-1
 261+ 1882 1A           TP_0	LD A,(DE)
 262+ 1883 13           	INC DE
 263+ 1884 FE 1E        	CP 15*2
 264+ 1886 30 06        	JR NC,TP_1
 265+ 1888 67           	LD H,A
 266+ 1889 1A           	LD A,(DE)
 267+ 188A 6F           	LD L,A
 268+ 188B 13           	INC DE
 269+ 188C 18 07        	JR TP_2
 270+ 188E D5           TP_1	PUSH DE
 271+ 188F 16 00        	LD D,0
 272+ 1891 5F           	LD E,A
 273+ 1892 19           	ADD HL,DE
 274+ 1893 19           	ADD HL,DE
 275+ 1894 D1           	POP DE
 276+ 1895 7C           TP_2	LD A,H
 277+ 1896 02           	LD (BC),A
 278+ 1897 0B           	DEC BC
 279+ 1898 7D           	LD A,L
 280+ 1899 02           	LD (BC),A
 281+ 189A 0B           	DEC BC
player.asm(282): warning: value 0x1F0 is truncated to 8bit value: 0xF0
 282+ 189B D6 F0        	SUB #F8*2
 283+ 189D 20 E3        	JR NZ,TP_0
 284+ 189F
 285+ 189F 3C           	INC A
 286+ 18A0 32 E3 20     	LD (VARS1+VRS.DelyCnt),A
 287+ 18A3 32 6A 21     	LD (VARS2+VRS.DelyCnt),A
 288+ 18A6 21 01 F0     	LD HL,#F001 ;H - CHP.Volume, L - CHP.NtSkCn
 289+ 18A9 22 94 20     	LD (VARS1+VRS.ChanA+CHP.NtSkCn),HL
 290+ 18AC 22 B1 20     	LD (VARS1+VRS.ChanB+CHP.NtSkCn),HL
 291+ 18AF 22 CE 20     	LD (VARS1+VRS.ChanC+CHP.NtSkCn),HL
 292+ 18B2 22 1B 21     	LD (VARS2+VRS.ChanA+CHP.NtSkCn),HL
 293+ 18B5 22 38 21     	LD (VARS2+VRS.ChanB+CHP.NtSkCn),HL
 294+ 18B8 22 55 21     	LD (VARS2+VRS.ChanC+CHP.NtSkCn),HL
 295+ 18BB E1           	POP HL
 296+ 18BC 22 86 20     	LD (VARS1+VRS.ChanA+CHP.OrnPtr),HL
 297+ 18BF 22 A3 20     	LD (VARS1+VRS.ChanB+CHP.OrnPtr),HL
 298+ 18C2 22 C0 20     	LD (VARS1+VRS.ChanC+CHP.OrnPtr),HL
 299+ 18C5 22 0D 21     	LD (VARS2+VRS.ChanA+CHP.OrnPtr),HL
 300+ 18C8 22 2A 21     	LD (VARS2+VRS.ChanB+CHP.OrnPtr),HL
 301+ 18CB 22 47 21     	LD (VARS2+VRS.ChanC+CHP.OrnPtr),HL
 302+ 18CE
 303+ 18CE F1           	POP AF
 304+ 18CF
 305+ 18CF              ;NoteTableCreator (c) Ivan Roshin
 306+ 18CF              ;A - NoteTableNumber*2+VersionForNoteTable
 307+ 18CF              ;(xx1b - 3.xx..3.4r, xx0b - 3.4x..3.6x..VTII1.0)
 308+ 18CF
 309+ 18CF 21 ED 1F     	LD HL,NT_DATA
 310+ 18D2 16 00        	LD D,0
 311+ 18D4 87           	ADD A,A
 312+ 18D5 5F           	LD E,A
 313+ 18D6 19           	ADD HL,DE
 314+ 18D7 5E           	LD E,(HL)
 315+ 18D8 23           	INC HL
 316+ 18D9 CB 3B        	SRL E
 317+ 18DB 9F           	SBC A,A
 318+ 18DC E6 A7        	AND #A7 ;#00 (NOP) or #A7 (AND A)
 319+ 18DE 32 06 19     	LD (L3),A
 320+ 18E1 EB           	EX DE,HL
 321+ 18E2 01 84 21     	LD BC,T1_
 322+ 18E5 09           	ADD HL,BC
 323+ 18E6
 324+ 18E6 1A           	LD A,(DE)
player.asm(325): warning: value 0x1FFD is truncated to 8bit value: 0xFD
 325+ 18E7 C6 FD        	ADD A,T_
 326+ 18E9 4F           	LD C,A
 327+ 18EA CE 1F        	ADC A,T_/256
 328+ 18EC 91           	SUB C
 329+ 18ED 47           	LD B,A
 330+ 18EE C5           	PUSH BC
 331+ 18EF 11 74 22     	LD DE,NT_
 332+ 18F2 D5           	PUSH DE
 333+ 18F3
 334+ 18F3 06 0C        	LD B,12
 335+ 18F5 C5           L1	PUSH BC
 336+ 18F6 4E           	LD C,(HL)
 337+ 18F7 23           	INC HL
 338+ 18F8 E5           	PUSH HL
 339+ 18F9 46           	LD B,(HL)
 340+ 18FA
 341+ 18FA D5           	PUSH DE
 342+ 18FB EB           	EX DE,HL
 343+ 18FC 11 17 00     	LD DE,23
 344+ 18FF DD 26 08     	LD IXH,8
 345+ 1902
 346+ 1902 CB 38        L2	SRL B
 347+ 1904 CB 19        	RR C
 348+ 1906 19           L3	DB #19	;AND A or NOP
 349+ 1907 79           	LD A,C
 350+ 1908 8A           	ADC A,D	;=ADC 0
 351+ 1909 77           	LD (HL),A
 352+ 190A 23           	INC HL
 353+ 190B 78           	LD A,B
 354+ 190C 8A           	ADC A,D
 355+ 190D 77           	LD (HL),A
 356+ 190E 19           	ADD HL,DE
 357+ 190F DD 25        	DEC IXH
 358+ 1911 20 EF        	JR NZ,L2
 359+ 1913
 360+ 1913 D1           	POP DE
 361+ 1914 13           	INC DE
 362+ 1915 13           	INC DE
 363+ 1916 E1           	POP HL
 364+ 1917 23           	INC HL
 365+ 1918 C1           	POP BC
 366+ 1919 10 DA        	DJNZ L1
 367+ 191B
 368+ 191B E1           	POP HL
 369+ 191C D1           	POP DE
 370+ 191D
 371+ 191D 7B           	LD A,E
player.asm(372): warning: value 0x2009 is truncated to 8bit value: 0x09
 372+ 191E FE 09        	CP TCOLD_1
 373+ 1920 20 05        	JR NZ,CORR_1
 374+ 1922 3E FD        	LD A,#FD
 375+ 1924 32 A2 22     	LD (NT_+#2E),A
 376+ 1927
 377+ 1927 1A           CORR_1	LD A,(DE)
 378+ 1928 A7           	AND A
 379+ 1929 28 11        	JR Z,TC_EXIT
 380+ 192B 1F           	RRA
 381+ 192C F5           	PUSH AF
 382+ 192D 87           	ADD A,A
 383+ 192E 4F           	LD C,A
 384+ 192F 09           	ADD HL,BC
 385+ 1930 F1           	POP AF
 386+ 1931 30 02        	JR NC,CORR_2
 387+ 1933 35           	DEC (HL)
 388+ 1934 35           	DEC (HL)
 389+ 1935 34           CORR_2	INC (HL)
 390+ 1936 A7           	AND A
 391+ 1937 ED 42        	SBC HL,BC
 392+ 1939 13           	INC DE
 393+ 193A 18 EB        	JR CORR_1
 394+ 193C
 395+ 193C              TC_EXIT
 396+ 193C
 397+ 193C F1           	POP AF
 398+ 193D
 399+ 193D              ;VolTableCreator (c) Ivan Roshin
 400+ 193D              ;A - VersionForVolumeTable (0..4 - 3.xx..3.4x;
 401+ 193D              			   ;5.. - 2.x,3.5x..3.6x..VTII1.0)
 402+ 193D
 403+ 193D FE 05        	CP 5
 404+ 193F 21 11 00     	LD HL,#11
 405+ 1942 54           	LD D,H
 406+ 1943 5C           	LD E,H
 407+ 1944 3E 17        	LD A,#17
 408+ 1946 30 03        	JR NC,M1
 409+ 1948 2D           	DEC L
 410+ 1949 5D           	LD E,L
 411+ 194A AF           	XOR A
 412+ 194B 32 5C 19     M1      LD (M2),A
 413+ 194E
 414+ 194E DD 21 84 21  	LD IX,VT_+16
 415+ 1952
 416+ 1952 0E 0F        	LD C,#F
 417+ 1954 E5           INITV2  PUSH HL
 418+ 1955
 419+ 1955 19           	ADD HL,DE
 420+ 1956 EB           	EX DE,HL
 421+ 1957 ED 62        	SBC HL,HL
 422+ 1959
 423+ 1959 06 10        	LD B,#10
 424+ 195B 7D           INITV1  LD A,L
 425+ 195C 7D           M2      DB #7D
 426+ 195D 7C           	LD A,H
 427+ 195E CE 00        	ADC A,0
 428+ 1960 DD 77 00     	LD (IX),A
 429+ 1963 DD 23        	INC IX
 430+ 1965 19           	ADD HL,DE
 431+ 1966 10 F3        	DJNZ INITV1
 432+ 1968
 433+ 1968 E1           	POP HL
 434+ 1969 7B           	LD A,E
 435+ 196A FE 77        	CP #77
 436+ 196C 20 01        	JR NZ,M3
 437+ 196E 1C           	INC E
 438+ 196F 0D           M3      DEC C
 439+ 1970 20 E2        	JR NZ,INITV2
 440+ 1972
 441+ 1972 C3 BA 1F     	JP ROUT
 442+ 1975
 443+ 1975 CD E8 19     INITPT3	CALL SETMDAD
 444+ 1978 E5           	PUSH HL
 445+ 1979 11 64 00     	LD DE,100
 446+ 197C 19           	ADD HL,DE
 447+ 197D 7E           	LD A,(HL)
 448+ 197E FD 77 08     	LD (IY-100+VRS.Delay),A
 449+ 1981 E5           	PUSH HL
 450+ 1982 DD E1        	POP IX
 451+ 1984 19           	ADD HL,DE
 452+ 1985 CD F6 19     	CALL SETCPPT
 453+ 1988 DD 5E 02     	LD E,(IX+102-100)
 454+ 198B 23           	INC HL
 455+ 198C
 456+ 198C              	IF CurPosCounter
 457+ 198C ~            	LD (IY-100+VRS.PosSub),L
 458+ 198C              	ENDIF
 459+ 198C
 460+ 198C 19           	ADD HL,DE
 461+ 198D CD FD 19     	CALL SETLPPT
 462+ 1990 D1           	POP DE
 463+ 1991 DD 6E 03     	LD L,(IX+103-100)
 464+ 1994 DD 66 04     	LD H,(IX+104-100)
 465+ 1997 19           	ADD HL,DE
 466+ 1998 CD E1 19     	CALL SETPTPT
 467+ 199B 21 A9 00     	LD HL,169
 468+ 199E 19           	ADD HL,DE
 469+ 199F CD EF 19     	CALL SETORPT
 470+ 19A2 21 69 00     	LD HL,105
 471+ 19A5 19           	ADD HL,DE
 472+ 19A6
 473+ 19A6 FD 75 FA     SETSMPT LD (IY-100+VRS.SamPtrs),L
 474+ 19A9 FD 74 FB     	LD (IY-100+VRS.SamPtrs+1),H
 475+ 19AC C9           	RET
 476+ 19AD
 477+ 19AD 7E           INITPT2	LD A,(HL)
 478+ 19AE FD 77 08     	LD (IY-100+VRS.Delay),A
 479+ 19B1 E5           	PUSH HL
 480+ 19B2 E5           	PUSH HL
 481+ 19B3 E5           	PUSH HL
 482+ 19B4 23           	INC HL
 483+ 19B5 23           	INC HL
 484+ 19B6 7E           	LD A,(HL)
 485+ 19B7 23           	INC HL
 486+ 19B8 CD A6 19     	CALL SETSMPT
 487+ 19BB 5E           	LD E,(HL)
 488+ 19BC 23           	INC HL
 489+ 19BD 56           	LD D,(HL)
 490+ 19BE E1           	POP HL
 491+ 19BF A7           	AND A
 492+ 19C0 ED 52        	SBC HL,DE
 493+ 19C2 CD E8 19     	CALL SETMDAD
 494+ 19C5 E1           	POP HL
 495+ 19C6 11 43 00     	LD DE,67
 496+ 19C9 19           	ADD HL,DE
 497+ 19CA CD EF 19     	CALL SETORPT
 498+ 19CD 1E 20        	LD E,32
 499+ 19CF 19           	ADD HL,DE
 500+ 19D0 4E           	LD C,(HL)
 501+ 19D1 23           	INC HL
 502+ 19D2 46           	LD B,(HL)
 503+ 19D3 1E 1E        	LD E,30
 504+ 19D5 19           	ADD HL,DE
 505+ 19D6 CD F6 19     	CALL SETCPPT
 506+ 19D9 5F           	LD E,A
 507+ 19DA 23           	INC HL
 508+ 19DB
 509+ 19DB              	IF CurPosCounter
 510+ 19DB ~            	LD (IY-100+VRS.PosSub),L
 511+ 19DB              	ENDIF
 512+ 19DB
 513+ 19DB 19           	ADD HL,DE
 514+ 19DC CD FD 19     	CALL SETLPPT
 515+ 19DF E1           	POP HL
 516+ 19E0 09           	ADD HL,BC
 517+ 19E1
 518+ 19E1 FD 75 FC     SETPTPT	LD (IY-100+VRS.PatsPtr),L
 519+ 19E4 FD 74 FD     	LD (IY-100+VRS.PatsPtr+1),H
 520+ 19E7 C9           	RET
 521+ 19E8
 522+ 19E8 FD 75 F6     SETMDAD	LD (IY-100+VRS.MODADDR),L
 523+ 19EB FD 74 F7     	LD (IY-100+VRS.MODADDR+1),H
 524+ 19EE C9           	RET
 525+ 19EF
 526+ 19EF FD 75 F8     SETORPT	LD (IY-100+VRS.OrnPtrs),L
 527+ 19F2 FD 74 F9     	LD (IY-100+VRS.OrnPtrs+1),H
 528+ 19F5 C9           	RET
 529+ 19F6
 530+ 19F6 FD 75 04     SETCPPT	LD (IY-100+VRS.CrPsPtr),L
 531+ 19F9 FD 74 05     	LD (IY-100+VRS.CrPsPtr+1),H
 532+ 19FC C9           	RET
 533+ 19FD
 534+ 19FD FD 75 06     SETLPPT	LD (IY-100+VRS.LPosPtr),L
 535+ 1A00 FD 74 07     	LD (IY-100+VRS.LPosPtr+1),H
 536+ 1A03 C9           	RET
 537+ 1A04
 538+ 1A04 FD 75 13     SETENBS	LD (IY-100+VRS.EnvBase),L
 539+ 1A07 FD 74 14     	LD (IY-100+VRS.EnvBase+1),H
 540+ 1A0A C9           	RET
 541+ 1A0B
 542+ 1A0B FD 75 0C     SETESLD	LD (IY-100+VRS.CurESld),L
 543+ 1A0E FD 74 0D     	LD (IY-100+VRS.CurESld+1),H
 544+ 1A11 C9           	RET
 545+ 1A12
 546+ 1A12 FD E5        GETIX	PUSH IY
 547+ 1A14 DD E1        	POP IX
 548+ 1A16 DD 19        	ADD IX,DE
 549+ 1A18 C9           	RET
 550+ 1A19
 551+ 1A19 CD 12 1A     PTDECOD CALL GETIX
 552+ 1A1C              PTDEC	EQU $+1
 553+ 1A1C C3 C3 C3     	JP #C3C3
 554+ 1A1F
 555+ 1A1F              ;PT2 pattern decoder
 556+ 1A1F CD B5 1C     PD2_SAM	CALL SETSAM
 557+ 1A22 18 4A        	JR PD2_LOOP
 558+ 1A24
 559+ 1A24 DD 77 08     PD2_EOff LD (IX-12+CHP.Env_En),A
 560+ 1A27 18 45        	JR PD2_LOOP
 561+ 1A29
 562+ 1A29 DD 36 08 10  PD2_ENV	LD (IX-12+CHP.Env_En),16
 563+ 1A2D FD 77 22     	LD (IY-100+VRS.AYREGS+EnvTp),A
 564+ 1A30 0A           	LD A,(BC)
 565+ 1A31 03           	INC BC
 566+ 1A32 6F           	LD L,A
 567+ 1A33 0A           	LD A,(BC)
 568+ 1A34 03           	INC BC
 569+ 1A35 67           	LD H,A
 570+ 1A36 CD 04 1A     	CALL SETENBS
 571+ 1A39 18 33        	JR PD2_LOOP
 572+ 1A3B
 573+ 1A3B CD 96 1C     PD2_ORN	CALL SETORN
 574+ 1A3E 18 2E        	JR PD2_LOOP
 575+ 1A40
 576+ 1A40 3C           PD2_SKIP INC A
 577+ 1A41 DD 77 05     	LD (IX-12+CHP.NNtSkp),A
 578+ 1A44 18 28        	JR PD2_LOOP
 579+ 1A46
 580+ 1A46 0F           PD2_VOL	RRCA
 581+ 1A47 0F           	RRCA
 582+ 1A48 0F           	RRCA
 583+ 1A49 0F           	RRCA
 584+ 1A4A DD 77 10     	LD (IX-12+CHP.Volume),A
 585+ 1A4D 18 1F        	JR PD2_LOOP
 586+ 1A4F
 587+ 1A4F CD 66 1C     PD2_DEL	CALL C_DELAY
 588+ 1A52 18 1A        	JR PD2_LOOP
 589+ 1A54
 590+ 1A54 DD CB 09 D6  PD2_GLIS SET 2,(IX-12+CHP.Flags)
 591+ 1A58 3C           	INC A
 592+ 1A59 DD 77 0A     	LD (IX-12+CHP.TnSlDl),A
 593+ 1A5C DD 77 F9     	LD (IX-12+CHP.TSlCnt),A
 594+ 1A5F 0A           	LD A,(BC)
 595+ 1A60 03           	INC BC
 596+ 1A61 DD 77 0B             LD (IX-12+CHP.TSlStp),A
 597+ 1A64 87           	ADD A,A
 598+ 1A65 9F           	SBC A,A
 599+ 1A66 DD 77 0C             LD (IX-12+CHP.TSlStp+1),A
 600+ 1A69 37           	SCF
 601+ 1A6A 18 01        	JR PD2_LP2
 602+ 1A6C
 603+ 1A6C A7           PT2PD	AND A
 604+ 1A6D
 605+ 1A6D 08           PD2_LP2	EX AF,AF'
 606+ 1A6E
 607+ 1A6E 0A           PD2_LOOP LD A,(BC)
 608+ 1A6F 03           	INC BC
 609+ 1A70 C6 20        	ADD A,#20
 610+ 1A72 28 3F        	JR Z,PD2_REL
 611+ 1A74 38 A9        	JR C,PD2_SAM
 612+ 1A76 C6 60        	ADD A,96
 613+ 1A78 38 3E        	JR C,PD2_NOTE
 614+ 1A7A 3C           	INC A
 615+ 1A7B 28 A7        	JR Z,PD2_EOff
 616+ 1A7D C6 0F        	ADD A,15
 617+ 1A7F CA 95 1B     	JP Z,PD_FIN
 618+ 1A82 38 A5        	JR C,PD2_ENV
 619+ 1A84 C6 10        	ADD A,#10
 620+ 1A86 38 B3        	JR C,PD2_ORN
 621+ 1A88 C6 40        	ADD A,#40
 622+ 1A8A 38 B4        	JR C,PD2_SKIP
 623+ 1A8C C6 10        	ADD A,#10
 624+ 1A8E 38 B6        	JR C,PD2_VOL
 625+ 1A90 3C           	INC A
 626+ 1A91 28 BC        	JR Z,PD2_DEL
 627+ 1A93 3C           	INC A
 628+ 1A94 28 BE        	JR Z,PD2_GLIS
 629+ 1A96 3C           	INC A
 630+ 1A97 28 0A        	JR Z,PD2_PORT
 631+ 1A99 3C           	INC A
 632+ 1A9A 28 12        	JR Z,PD2_STOP
 633+ 1A9C 0A           	LD A,(BC)
 634+ 1A9D 03           	INC BC
 635+ 1A9E DD 77 F7     	LD (IX-12+CHP.CrNsSl),A
 636+ 1AA1 18 CB        	JR PD2_LOOP
 637+ 1AA3
 638+ 1AA3 DD CB 09 96  PD2_PORT RES 2,(IX-12+CHP.Flags)
 639+ 1AA7 0A           	LD A,(BC)
 640+ 1AA8 03           	INC BC
 641+ 1AA9 03           	INC BC ;ignoring precalc delta to right sound
 642+ 1AAA 03           	INC BC
 643+ 1AAB 37           	SCF
 644+ 1AAC 18 BF        	JR PD2_LP2
 645+ 1AAE
 646+ 1AAE DD 77 F9     PD2_STOP LD (IX-12+CHP.TSlCnt),A
 647+ 1AB1 18 BB        	JR PD2_LOOP
 648+ 1AB3
 649+ 1AB3 DD 77 09     PD2_REL	LD (IX-12+CHP.Flags),A
 650+ 1AB6 18 2C        	JR PD2_EXIT
 651+ 1AB8
 652+ 1AB8 6F           PD2_NOTE LD L,A
 653+ 1AB9 DD 7E 06     	LD A,(IX-12+CHP.Note)
 654+ 1ABC 32 CF 1B     	LD (PrNote+1),A
 655+ 1ABF DD 75 06     	LD (IX-12+CHP.Note),L
 656+ 1AC2 AF           	XOR A
 657+ 1AC3 DD 77 F9     	LD (IX-12+CHP.TSlCnt),A
 658+ 1AC6 DD CB 09 C6  	SET 0,(IX-12+CHP.Flags)
 659+ 1ACA 08           	EX AF,AF'
 660+ 1ACB 30 16        	JR NC,NOGLIS2
 661+ 1ACD DD CB 09 56  	BIT 2,(IX-12+CHP.Flags)
 662+ 1AD1 20 0C        	JR NZ,NOPORT2
 663+ 1AD3 32 F5 1B     	LD (LoStep),A
 664+ 1AD6 87           	ADD A,A
 665+ 1AD7 9F           	SBC A,A
 666+ 1AD8 08           	EX AF,AF'
 667+ 1AD9 67           	LD H,A
 668+ 1ADA 6F           	LD L,A
 669+ 1ADB 3C           	INC A
 670+ 1ADC CD B0 1B     	CALL SETPORT
 671+ 1ADF DD 36 F9 01  NOPORT2	LD (IX-12+CHP.TSlCnt),1
 672+ 1AE3 AF           NOGLIS2	XOR A
 673+ 1AE4
 674+ 1AE4
 675+ 1AE4 DD 77 F5     PD2_EXIT LD (IX-12+CHP.PsInSm),A
 676+ 1AE7 DD 77 F4     	LD (IX-12+CHP.PsInOr),A
 677+ 1AEA DD 77 FA     	LD (IX-12+CHP.CrTnSl),A
 678+ 1AED DD 77 FB     	LD (IX-12+CHP.CrTnSl+1),A
 679+ 1AF0 C3 95 1B     	JP PD_FIN
 680+ 1AF3
 681+ 1AF3              ;PT3 pattern decoder
 682+ 1AF3 DD 36 08 00  PD_OrSm	LD (IX-12+CHP.Env_En),0
 683+ 1AF7 CD 96 1C     	CALL SETORN
 684+ 1AFA 0A           PD_SAM_	LD A,(BC)
 685+ 1AFB 03           	INC BC
 686+ 1AFC 0F           	RRCA
 687+ 1AFD
 688+ 1AFD CD B5 1C     PD_SAM	CALL SETSAM
 689+ 1B00 18 3F        	JR PD_LOOP
 690+ 1B02
 691+ 1B02 0F           PD_VOL	RRCA
 692+ 1B03 0F           	RRCA
 693+ 1B04 0F           	RRCA
 694+ 1B05 0F           	RRCA
 695+ 1B06 DD 77 10     	LD (IX-12+CHP.Volume),A
 696+ 1B09 18 39        	JR PD_LP2
 697+ 1B0B
 698+ 1B0B DD 77 08     PD_EOff	LD (IX-12+CHP.Env_En),A
 699+ 1B0E DD 77 F4     	LD (IX-12+CHP.PsInOr),A
 700+ 1B11 18 31        	JR PD_LP2
 701+ 1B13
 702+ 1B13 3D           PD_SorE	DEC A
 703+ 1B14 20 07        	JR NZ,PD_ENV
 704+ 1B16 0A           	LD A,(BC)
 705+ 1B17 03           	INC BC
 706+ 1B18 DD 77 05     	LD (IX-12+CHP.NNtSkp),A
 707+ 1B1B 18 27        	JR PD_LP2
 708+ 1B1D
 709+ 1B1D CD 7B 1C     PD_ENV	CALL SETENV
 710+ 1B20 18 22        	JR PD_LP2
 711+ 1B22
 712+ 1B22 CD 96 1C     PD_ORN	CALL SETORN
 713+ 1B25 18 1A        	JR PD_LOOP
 714+ 1B27
 715+ 1B27 DD 77 08     PD_ESAM	LD (IX-12+CHP.Env_En),A
 716+ 1B2A DD 77 F4     	LD (IX-12+CHP.PsInOr),A
 717+ 1B2D C4 7B 1C     	CALL NZ,SETENV
 718+ 1B30 18 C8        	JR PD_SAM_
 719+ 1B32
 720+ 1B32 DD 7E 06     PT3PD	LD A,(IX-12+CHP.Note)
 721+ 1B35 32 CF 1B     	LD (PrNote+1),A
 722+ 1B38 DD 6E FA     	LD L,(IX-12+CHP.CrTnSl)
 723+ 1B3B DD 66 FB     	LD H,(IX-12+CHP.CrTnSl+1)
 724+ 1B3E 22 EC 1B     	LD (PrSlide+1),HL
 725+ 1B41
 726+ 1B41 11 10 20     PD_LOOP	LD DE,#2010
 727+ 1B44 0A           PD_LP2	LD A,(BC)
 728+ 1B45 03           	INC BC
 729+ 1B46 83           	ADD A,E
 730+ 1B47 38 AA        	JR C,PD_OrSm
 731+ 1B49 82           	ADD A,D
 732+ 1B4A 28 49        	JR Z,PD_FIN
 733+ 1B4C 38 AF        	JR C,PD_SAM
 734+ 1B4E 83           	ADD A,E
 735+ 1B4F 28 25        	JR Z,PD_REL
 736+ 1B51 38 AF        	JR C,PD_VOL
 737+ 1B53 83           	ADD A,E
 738+ 1B54 28 B5        	JR Z,PD_EOff
 739+ 1B56 38 BB        	JR C,PD_SorE
 740+ 1B58 C6 60        	ADD A,96
 741+ 1B5A 38 20        	JR C,PD_NOTE
 742+ 1B5C 83           	ADD A,E
 743+ 1B5D 38 C3        	JR C,PD_ORN
 744+ 1B5F 82           	ADD A,D
 745+ 1B60 38 0F        	JR C,PD_NOIS
 746+ 1B62 83           	ADD A,E
 747+ 1B63 38 C2        	JR C,PD_ESAM
 748+ 1B65 87           	ADD A,A
 749+ 1B66 5F           	LD E,A
 750+ 1B67 21 F1 FB     	LD HL,SPCCOMS+#FF20-#2000
 751+ 1B6A 19           	ADD HL,DE
 752+ 1B6B 5E           	LD E,(HL)
 753+ 1B6C 23           	INC HL
 754+ 1B6D 56           	LD D,(HL)
 755+ 1B6E D5           	PUSH DE
 756+ 1B6F 18 D0        	JR PD_LOOP
 757+ 1B71
 758+ 1B71 FD 77 10     PD_NOIS	LD (IY-100+VRS.Ns_Base),A
 759+ 1B74 18 CE        	JR PD_LP2
 760+ 1B76
 761+ 1B76 DD CB 09 86  PD_REL	RES 0,(IX-12+CHP.Flags)
 762+ 1B7A 18 08        	JR PD_RES
 763+ 1B7C
 764+ 1B7C DD 77 06     PD_NOTE	LD (IX-12+CHP.Note),A
 765+ 1B7F DD CB 09 C6  	SET 0,(IX-12+CHP.Flags)
 766+ 1B83 AF           	XOR A
 767+ 1B84
 768+ 1B84 ED 73 93 1B  PD_RES	LD (PDSP_+1),SP
 769+ 1B88 DD F9        	LD SP,IX
 770+ 1B8A 67           	LD H,A
 771+ 1B8B 6F           	LD L,A
 772+ 1B8C E5           	PUSH HL
 773+ 1B8D E5           	PUSH HL
 774+ 1B8E E5           	PUSH HL
 775+ 1B8F E5           	PUSH HL
 776+ 1B90 E5           	PUSH HL
 777+ 1B91 E5           	PUSH HL
 778+ 1B92 31 31 31     PDSP_	LD SP,#3131
 779+ 1B95
 780+ 1B95 DD 7E 05     PD_FIN	LD A,(IX-12+CHP.NNtSkp)
 781+ 1B98 DD 77 0F     	LD (IX-12+CHP.NtSkCn),A
 782+ 1B9B C9           	RET
 783+ 1B9C
 784+ 1B9C 0A           C_PORTM LD A,(BC)
 785+ 1B9D 03           	INC BC
 786+ 1B9E              ;SKIP PRECALCULATED TONE DELTA (BECAUSE
 787+ 1B9E              ;CANNOT BE RIGHT AFTER PT3 COMPILATION)
 788+ 1B9E 03           	INC BC
 789+ 1B9F 03           	INC BC
 790+ 1BA0 08           	EX AF,AF'
 791+ 1BA1 0A           	LD A,(BC) ;SIGNED TONE STEP
 792+ 1BA2 03           	INC BC
 793+ 1BA3 32 F5 1B     	LD (LoStep),A
 794+ 1BA6 0A           	LD A,(BC)
 795+ 1BA7 03           	INC BC
 796+ 1BA8 A7           	AND A
 797+ 1BA9 08           	EX AF,AF'
 798+ 1BAA DD 6E FA     	LD L,(IX-12+CHP.CrTnSl)
 799+ 1BAD DD 66 FB     	LD H,(IX-12+CHP.CrTnSl+1)
 800+ 1BB0
 801+ 1BB0              ;Set portamento variables
 802+ 1BB0              ;A - Delay; A' - Hi(Step); ZF' - (A'=0); HL - CrTnSl
 803+ 1BB0
 804+ 1BB0 DD CB 09 96  SETPORT	RES 2,(IX-12+CHP.Flags)
 805+ 1BB4 DD 77 0A     	LD (IX-12+CHP.TnSlDl),A
 806+ 1BB7 DD 77 F9     	LD (IX-12+CHP.TSlCnt),A
 807+ 1BBA E5           	PUSH HL
 808+ 1BBB 11 74 22     	LD DE,NT_
 809+ 1BBE DD 7E 06     	LD A,(IX-12+CHP.Note)
 810+ 1BC1 DD 77 07     	LD (IX-12+CHP.SlToNt),A
 811+ 1BC4 87           	ADD A,A
 812+ 1BC5 6F           	LD L,A
 813+ 1BC6 26 00        	LD H,0
 814+ 1BC8 19           	ADD HL,DE
 815+ 1BC9 7E           	LD A,(HL)
 816+ 1BCA 23           	INC HL
 817+ 1BCB 66           	LD H,(HL)
 818+ 1BCC 6F           	LD L,A
 819+ 1BCD E5           	PUSH HL
 820+ 1BCE 3E 3E        PrNote	LD A,#3E
 821+ 1BD0 DD 77 06     	LD (IX-12+CHP.Note),A
 822+ 1BD3 87           	ADD A,A
 823+ 1BD4 6F           	LD L,A
 824+ 1BD5 26 00        	LD H,0
 825+ 1BD7 19           	ADD HL,DE
 826+ 1BD8 5E           	LD E,(HL)
 827+ 1BD9 23           	INC HL
 828+ 1BDA 56           	LD D,(HL)
 829+ 1BDB E1           	POP HL
 830+ 1BDC ED 52        	SBC HL,DE
 831+ 1BDE DD 75 0D     	LD (IX-12+CHP.TnDelt),L
 832+ 1BE1 DD 74 0E     	LD (IX-12+CHP.TnDelt+1),H
 833+ 1BE4 D1           	POP DE
 834+ 1BE5              Version EQU $+1
 835+ 1BE5 3E 3E        	LD A,#3E
 836+ 1BE7 FE 06        	CP 6
 837+ 1BE9 38 09        	JR C,OLDPRTM ;Old 3xxx for PT v3.5-
 838+ 1BEB 11 11 11     PrSlide	LD DE,#1111
 839+ 1BEE DD 73 FA     	LD (IX-12+CHP.CrTnSl),E
 840+ 1BF1 DD 72 FB     	LD (IX-12+CHP.CrTnSl+1),D
 841+ 1BF4              LoStep	EQU $+1
 842+ 1BF4 3E 3E        OLDPRTM	LD A,#3E
 843+ 1BF6 08           	EX AF,AF'
 844+ 1BF7 28 01        	JR Z,NOSIG
 845+ 1BF9 EB           	EX DE,HL
 846+ 1BFA ED 52        NOSIG	SBC HL,DE
 847+ 1BFC F2 04 1C     	JP P,SET_STP
 848+ 1BFF 2F           	CPL
 849+ 1C00 08           	EX AF,AF'
 850+ 1C01 ED 44        	NEG
 851+ 1C03 08           	EX AF,AF'
 852+ 1C04 DD 77 0C     SET_STP	LD (IX-12+CHP.TSlStp+1),A
 853+ 1C07 08           	EX AF,AF'
 854+ 1C08 DD 77 0B     	LD (IX-12+CHP.TSlStp),A
 855+ 1C0B DD 36 FE 00  	LD (IX-12+CHP.COnOff),0
 856+ 1C0F C9           	RET
 857+ 1C10
 858+ 1C10 DD CB 09 D6  C_GLISS	SET 2,(IX-12+CHP.Flags)
 859+ 1C14 0A           	LD A,(BC)
 860+ 1C15 03           	INC BC
 861+ 1C16 DD 77 0A     	LD (IX-12+CHP.TnSlDl),A
 862+ 1C19 A7           	AND A
 863+ 1C1A 20 07        	JR NZ,GL36
 864+ 1C1C 3A E6 1B     	LD A,(Version) ;AlCo PT3.7+
 865+ 1C1F FE 07        	CP 7
 866+ 1C21 9F           	SBC A,A
 867+ 1C22 3C           	INC A
 868+ 1C23 DD 77 F9     GL36	LD (IX-12+CHP.TSlCnt),A
 869+ 1C26 0A           	LD A,(BC)
 870+ 1C27 03           	INC BC
 871+ 1C28 08           	EX AF,AF'
 872+ 1C29 0A           	LD A,(BC)
 873+ 1C2A 03           	INC BC
 874+ 1C2B 18 D7        	JR SET_STP
 875+ 1C2D
 876+ 1C2D 0A           C_SMPOS	LD A,(BC)
 877+ 1C2E 03           	INC BC
 878+ 1C2F DD 77 F5     	LD (IX-12+CHP.PsInSm),A
 879+ 1C32 C9           	RET
 880+ 1C33
 881+ 1C33 0A           C_ORPOS	LD A,(BC)
 882+ 1C34 03           	INC BC
 883+ 1C35 DD 77 F4     	LD (IX-12+CHP.PsInOr),A
 884+ 1C38 C9           	RET
 885+ 1C39
 886+ 1C39 0A           C_VIBRT	LD A,(BC)
 887+ 1C3A 03           	INC BC
 888+ 1C3B DD 77 FF     	LD (IX-12+CHP.OnOffD),A
 889+ 1C3E DD 77 FE     	LD (IX-12+CHP.COnOff),A
 890+ 1C41 0A           	LD A,(BC)
 891+ 1C42 03           	INC BC
 892+ 1C43 DD 77 00     	LD (IX-12+CHP.OffOnD),A
 893+ 1C46 AF           	XOR A
 894+ 1C47 DD 77 F9     	LD (IX-12+CHP.TSlCnt),A
 895+ 1C4A DD 77 FA     	LD (IX-12+CHP.CrTnSl),A
 896+ 1C4D DD 77 FB     	LD (IX-12+CHP.CrTnSl+1),A
 897+ 1C50 C9           	RET
 898+ 1C51
 899+ 1C51 0A           C_ENGLS	LD A,(BC)
 900+ 1C52 03           	INC BC
 901+ 1C53 FD 77 0E     	LD (IY-100+VRS.Env_Del),A
 902+ 1C56 FD 77 0F     	LD (IY-100+VRS.CurEDel),A
 903+ 1C59 0A           	LD A,(BC)
 904+ 1C5A 03           	INC BC
 905+ 1C5B 6F           	LD L,A
 906+ 1C5C 0A           	LD A,(BC)
 907+ 1C5D 03           	INC BC
 908+ 1C5E 67           	LD H,A
 909+ 1C5F FD 75 0A     	LD (IY-100+VRS.ESldAdd),L
 910+ 1C62 FD 74 0B     	LD (IY-100+VRS.ESldAdd+1),H
 911+ 1C65 C9           	RET
 912+ 1C66
 913+ 1C66 0A           C_DELAY	LD A,(BC)
 914+ 1C67 03           	INC BC
 915+ 1C68 FD 77 08     	LD (IY-100+VRS.Delay),A
 916+ 1C6B 21 FF 20     	LD HL,VARS2+VRS.ModNum ;if AlCo_TS
 917+ 1C6E CB 4E        	BIT 1,(HL)
 918+ 1C70 C8           	RET Z
 919+ 1C71 32 E2 20     	LD (VARS1+VRS.Delay),A
 920+ 1C74 32 E3 20     	LD (VARS1+VRS.DelyCnt),A
 921+ 1C77 32 69 21     	LD (VARS2+VRS.Delay),A
 922+ 1C7A C9           	RET
 923+ 1C7B
 924+ 1C7B DD 73 08     SETENV	LD (IX-12+CHP.Env_En),E
 925+ 1C7E FD 77 22     	LD (IY-100+VRS.AYREGS+EnvTp),A
 926+ 1C81 0A           	LD A,(BC)
 927+ 1C82 03           	INC BC
 928+ 1C83 67           	LD H,A
 929+ 1C84 0A           	LD A,(BC)
 930+ 1C85 03           	INC BC
 931+ 1C86 6F           	LD L,A
 932+ 1C87 CD 04 1A     	CALL SETENBS
 933+ 1C8A AF           	XOR A
 934+ 1C8B DD 77 F4     	LD (IX-12+CHP.PsInOr),A
 935+ 1C8E FD 77 0F     	LD (IY-100+VRS.CurEDel),A
 936+ 1C91 67           	LD H,A
 937+ 1C92 6F           	LD L,A
 938+ 1C93 C3 0B 1A     	JP SETESLD
 939+ 1C96
 940+ 1C96 87           SETORN	ADD A,A
 941+ 1C97 5F           	LD E,A
 942+ 1C98 16 00        	LD D,0
 943+ 1C9A DD 72 F4     	LD (IX-12+CHP.PsInOr),D
 944+ 1C9D FD 6E F8     	LD L,(IY-100+VRS.OrnPtrs)
 945+ 1CA0 FD 66 F9     	LD H,(IY-100+VRS.OrnPtrs+1)
 946+ 1CA3 19           	ADD HL,DE
 947+ 1CA4 5E           	LD E,(HL)
 948+ 1CA5 23           	INC HL
 949+ 1CA6 56           	LD D,(HL)
 950+ 1CA7 FD 6E F6     	LD L,(IY-100+VRS.MODADDR)
 951+ 1CAA FD 66 F7     	LD H,(IY-100+VRS.MODADDR+1)
 952+ 1CAD 19           	ADD HL,DE
 953+ 1CAE DD 75 01     	LD (IX-12+CHP.OrnPtr),L
 954+ 1CB1 DD 74 02     	LD (IX-12+CHP.OrnPtr+1),H
 955+ 1CB4 C9           C_NOP	RET
 956+ 1CB5
 957+ 1CB5 87           SETSAM	ADD A,A
 958+ 1CB6 5F           	LD E,A
 959+ 1CB7 16 00        	LD D,0
 960+ 1CB9 FD 6E FA     	LD L,(IY-100+VRS.SamPtrs);
 961+ 1CBC FD 66 FB     	LD H,(IY-100+VRS.SamPtrs+1);
 962+ 1CBF 19           	ADD HL,DE
 963+ 1CC0 5E           	LD E,(HL)
 964+ 1CC1 23           	INC HL
 965+ 1CC2 56           	LD D,(HL)
 966+ 1CC3 FD 6E F6     	LD L,(IY-100+VRS.MODADDR)
 967+ 1CC6 FD 66 F7     	LD H,(IY-100+VRS.MODADDR+1)
 968+ 1CC9 19           	ADD HL,DE
 969+ 1CCA DD 75 03     	LD (IX-12+CHP.SamPtr),L
 970+ 1CCD DD 74 04     	LD (IX-12+CHP.SamPtr+1),H
 971+ 1CD0 C9           	RET
 972+ 1CD1
 973+ 1CD1              ;ALL 16 ADDRESSES TO PROTECT FROM BROKEN PT3 MODULES
 974+ 1CD1 B4 1C        SPCCOMS DW C_NOP
 975+ 1CD3 10 1C        	DW C_GLISS
 976+ 1CD5 9C 1B        	DW C_PORTM
 977+ 1CD7 2D 1C        	DW C_SMPOS
 978+ 1CD9 33 1C        	DW C_ORPOS
 979+ 1CDB 39 1C        	DW C_VIBRT
 980+ 1CDD B4 1C        	DW C_NOP
 981+ 1CDF B4 1C        	DW C_NOP
 982+ 1CE1 51 1C        	DW C_ENGLS
 983+ 1CE3 66 1C        	DW C_DELAY
 984+ 1CE5 B4 1C        	DW C_NOP
 985+ 1CE7 B4 1C        	DW C_NOP
 986+ 1CE9 B4 1C        	DW C_NOP
 987+ 1CEB B4 1C        	DW C_NOP
 988+ 1CED B4 1C        	DW C_NOP
 989+ 1CEF B4 1C        	DW C_NOP
 990+ 1CF1
 991+ 1CF1 CD 12 1A     CHREGS	CALL GETIX
 992+ 1CF4 AF           	XOR A
 993+ 1CF5 32 31 1F     	LD (Ampl),A
 994+ 1CF8 DD CB 15 46  	BIT 0,(IX+CHP.Flags)
 995+ 1CFC E5           	PUSH HL
 996+ 1CFD CA 44 1E     	JP Z,CH_EXIT
 997+ 1D00 ED 73 8E 1D  	LD (CSP_+1),SP
 998+ 1D04 DD 6E 0D     	LD L,(IX+CHP.OrnPtr)
 999+ 1D07 DD 66 0E     	LD H,(IX+CHP.OrnPtr+1)
1000+ 1D0A F9           	LD SP,HL
1001+ 1D0B D1           	POP DE
1002+ 1D0C 67           	LD H,A
1003+ 1D0D DD 7E 00     	LD A,(IX+CHP.PsInOr)
1004+ 1D10 6F           	LD L,A
1005+ 1D11 39           	ADD HL,SP
1006+ 1D12 3C           	INC A
1007+ 1D13              		;PT2	PT3
1008+ 1D13 3C           OrnCP	INC A	;CP E	CP D
1009+ 1D14 38 01        	JR C,CH_ORPS
1010+ 1D16 01           OrnLD	DB 1	;LD A,D	LD A,E
1011+ 1D17 DD 77 00     CH_ORPS	LD (IX+CHP.PsInOr),A
1012+ 1D1A DD 7E 12     	LD A,(IX+CHP.Note)
1013+ 1D1D 86           	ADD A,(HL)
1014+ 1D1E F2 22 1D     	JP P,CH_NTP
1015+ 1D21 AF           	XOR A
1016+ 1D22 FE 60        CH_NTP	CP 96
1017+ 1D24 38 02        	JR C,CH_NOK
1018+ 1D26 3E 5F        	LD A,95
1019+ 1D28 87           CH_NOK	ADD A,A
1020+ 1D29 08           	EX AF,AF'
1021+ 1D2A DD 6E 0F     	LD L,(IX+CHP.SamPtr)
1022+ 1D2D DD 66 10     	LD H,(IX+CHP.SamPtr+1)
1023+ 1D30 F9           	LD SP,HL
1024+ 1D31 D1           	POP DE
1025+ 1D32 26 00        	LD H,0
1026+ 1D34 DD 7E 01     	LD A,(IX+CHP.PsInSm)
1027+ 1D37 47           	LD B,A
1028+ 1D38 87           	ADD A,A
1029+ 1D39 87           SamClc2	ADD A,A ;or ADD A,B for PT2
1030+ 1D3A 6F           	LD L,A
1031+ 1D3B 39           	ADD HL,SP
1032+ 1D3C F9           	LD SP,HL
1033+ 1D3D 78           	LD A,B
1034+ 1D3E 3C           	INC A
1035+ 1D3F              		;PT2	PT3
1036+ 1D3F 3C           SamCP	INC A	;CP E	CP D
1037+ 1D40 38 01        	JR C,CH_SMPS
1038+ 1D42 01           SamLD	DB 1	;LD A,D	LD A,E
1039+ 1D43 DD 77 01     CH_SMPS	LD (IX+CHP.PsInSm),A
1040+ 1D46 C1           	POP BC
1041+ 1D47 E1           	POP HL
1042+ 1D48
1043+ 1D48              ;Convert PT2 sample to PT3
1044+ 1D48              		;PT2		PT3
1045+ 1D48 E1           SamCnv	POP HL  ;BIT 2,C	JR e_
1046+ 1D49 E1           	POP HL
1047+ 1D4A 60           	LD H,B
1048+ 1D4B 20 06        	JR NZ,$+8
1049+ 1D4D EB           	EX DE,HL
1050+ 1D4E A7           	AND A
1051+ 1D4F ED 62        	SBC HL,HL
1052+ 1D51 ED 52        	SBC HL,DE
1053+ 1D53 51           	LD D,C
1054+ 1D54 CB 19        	RR C
1055+ 1D56 9F           	SBC A,A
1056+ 1D57 2F           	CPL
1057+ 1D58 E6 3E        	AND #3E
1058+ 1D5A CB 19        	RR C
1059+ 1D5C CB 18        	RR B
1060+ 1D5E A1           	AND C
1061+ 1D5F 4F           	LD C,A
1062+ 1D60 78           	LD A,B
1063+ 1D61 1F           	RRA
1064+ 1D62 1F           	RRA
1065+ 1D63 CB 1A        	RR D
1066+ 1D65 1F           	RRA
1067+ 1D66 E6 9F        	AND #9F
1068+ 1D68 47           	LD B,A
1069+ 1D69
1070+ 1D69 DD 5E 08     e_	LD E,(IX+CHP.TnAcc)
1071+ 1D6C DD 56 09     	LD D,(IX+CHP.TnAcc+1)
1072+ 1D6F 19           	ADD HL,DE
1073+ 1D70 CB 70        	BIT 6,B
1074+ 1D72 28 06        	JR Z,CH_NOAC
1075+ 1D74 DD 75 08     	LD (IX+CHP.TnAcc),L
1076+ 1D77 DD 74 09     	LD (IX+CHP.TnAcc+1),H
1077+ 1D7A EB           CH_NOAC EX DE,HL
1078+ 1D7B 08           	EX AF,AF'
player.asm(1079): warning: value 0x2274 is truncated to 8bit value: 0x74
1079+ 1D7C C6 74        	ADD A,NT_
1080+ 1D7E 6F           	LD L,A
1081+ 1D7F CE 22        	ADC A,NT_/256
1082+ 1D81 95           	SUB L
1083+ 1D82 67           	LD H,A
1084+ 1D83 F9           	LD SP,HL
1085+ 1D84 E1           	POP HL
1086+ 1D85 19           	ADD HL,DE
1087+ 1D86 DD 5E 06     	LD E,(IX+CHP.CrTnSl)
1088+ 1D89 DD 56 07     	LD D,(IX+CHP.CrTnSl+1)
1089+ 1D8C 19           	ADD HL,DE
1090+ 1D8D 31 31 31     CSP_	LD SP,#3131
1091+ 1D90 E3           	EX (SP),HL
1092+ 1D91 AF           	XOR A
1093+ 1D92 DD B6 05     	OR (IX+CHP.TSlCnt)
1094+ 1D95 28 3E        	JR Z,CH_AMP
1095+ 1D97 DD 35 05     	DEC (IX+CHP.TSlCnt)
1096+ 1D9A 20 39        	JR NZ,CH_AMP
1097+ 1D9C DD 7E 16     	LD A,(IX+CHP.TnSlDl)
1098+ 1D9F DD 77 05     	LD (IX+CHP.TSlCnt),A
1099+ 1DA2 DD 6E 17     	LD L,(IX+CHP.TSlStp)
1100+ 1DA5 DD 66 18     	LD H,(IX+CHP.TSlStp+1)
1101+ 1DA8 7C           	LD A,H
1102+ 1DA9 19           	ADD HL,DE
1103+ 1DAA DD 75 06     	LD (IX+CHP.CrTnSl),L
1104+ 1DAD DD 74 07     	LD (IX+CHP.CrTnSl+1),H
1105+ 1DB0 DD CB 15 56  	BIT 2,(IX+CHP.Flags)
1106+ 1DB4 20 1F        	JR NZ,CH_AMP
1107+ 1DB6 DD 5E 19     	LD E,(IX+CHP.TnDelt)
1108+ 1DB9 DD 56 1A     	LD D,(IX+CHP.TnDelt+1)
1109+ 1DBC A7           	AND A
1110+ 1DBD 28 01        	JR Z,CH_STPP
1111+ 1DBF EB           	EX DE,HL
1112+ 1DC0 ED 52        CH_STPP SBC HL,DE
1113+ 1DC2 FA D5 1D     	JP M,CH_AMP
1114+ 1DC5 DD 7E 13     	LD A,(IX+CHP.SlToNt)
1115+ 1DC8 DD 77 12     	LD (IX+CHP.Note),A
1116+ 1DCB AF           	XOR A
1117+ 1DCC DD 77 05     	LD (IX+CHP.TSlCnt),A
1118+ 1DCF DD 77 06     	LD (IX+CHP.CrTnSl),A
1119+ 1DD2 DD 77 07     	LD (IX+CHP.CrTnSl+1),A
1120+ 1DD5 DD 7E 02     CH_AMP	LD A,(IX+CHP.CrAmSl)
1121+ 1DD8 CB 79        	BIT 7,C
1122+ 1DDA 28 13        	JR Z,CH_NOAM
1123+ 1DDC CB 71        	BIT 6,C
1124+ 1DDE 28 07        	JR Z,CH_AMIN
1125+ 1DE0 FE 0F        	CP 15
1126+ 1DE2 28 0B        	JR Z,CH_NOAM
1127+ 1DE4 3C           	INC A
1128+ 1DE5 18 05        	JR CH_SVAM
1129+ 1DE7 FE F1        CH_AMIN	CP -15
1130+ 1DE9 28 04        	JR Z,CH_NOAM
1131+ 1DEB 3D           	DEC A
1132+ 1DEC DD 77 02     CH_SVAM	LD (IX+CHP.CrAmSl),A
1133+ 1DEF 6F           CH_NOAM	LD L,A
1134+ 1DF0 78           	LD A,B
1135+ 1DF1 E6 0F        	AND 15
1136+ 1DF3 85           	ADD A,L
1137+ 1DF4 F2 F8 1D     	JP P,CH_APOS
1138+ 1DF7 AF           	XOR A
1139+ 1DF8 FE 10        CH_APOS	CP 16
1140+ 1DFA 38 02        	JR C,CH_VOL
1141+ 1DFC 3E 0F        	LD A,15
1142+ 1DFE DD B6 1C     CH_VOL	OR (IX+CHP.Volume)
player.asm(1143): warning: value 0x2174 is truncated to 8bit value: 0x74
1143+ 1E01 C6 74        	ADD A,VT_
1144+ 1E03 6F           	LD L,A
1145+ 1E04 CE 21        	ADC A,VT_/256
1146+ 1E06 95           	SUB L
1147+ 1E07 67           	LD H,A
1148+ 1E08 7E           	LD A,(HL)
1149+ 1E09 CB 41        CH_ENV	BIT 0,C
1150+ 1E0B 20 03        	JR NZ,CH_NOEN
1151+ 1E0D DD B6 14     	OR (IX+CHP.Env_En)
1152+ 1E10 32 31 1F     CH_NOEN	LD (Ampl),A
1153+ 1E13 CB 78        	BIT 7,B
1154+ 1E15 79           	LD A,C
1155+ 1E16 28 1A        	JR Z,NO_ENSL
1156+ 1E18 17           	RLA
1157+ 1E19 17           	RLA
1158+ 1E1A CB 2F        	SRA A
1159+ 1E1C CB 2F        	SRA A
1160+ 1E1E CB 2F        	SRA A
1161+ 1E20 DD 86 04     	ADD A,(IX+CHP.CrEnSl) ;SEE COMMENT BELOW
1162+ 1E23 CB 68        	BIT 5,B
1163+ 1E25 28 03        	JR Z,NO_ENAC
1164+ 1E27 DD 77 04     	LD (IX+CHP.CrEnSl),A
1165+ 1E2A FD 86 12     NO_ENAC	ADD A,(IY-100+VRS.AddToEn) ;BUG IN PT3 - NEED WORD HERE
1166+ 1E2D FD 77 12     	LD (IY-100+VRS.AddToEn),A
1167+ 1E30 18 0E        	JR CH_MIX
1168+ 1E32 1F           NO_ENSL RRA
1169+ 1E33 DD 86 03     	ADD A,(IX+CHP.CrNsSl)
1170+ 1E36 FD 77 11     	LD (IY-100+VRS.AddToNs),A
1171+ 1E39 CB 68        	BIT 5,B
1172+ 1E3B 28 03        	JR Z,CH_MIX
1173+ 1E3D DD 77 03     	LD (IX+CHP.CrNsSl),A
1174+ 1E40 78           CH_MIX	LD A,B
1175+ 1E41 1F           	RRA
1176+ 1E42 E6 48        	AND #48
1177+ 1E44 FD B6 1C     CH_EXIT	OR (IY-100+VRS.AYREGS+Mixer)
1178+ 1E47 0F           	RRCA
1179+ 1E48 FD 77 1C     	LD (IY-100+VRS.AYREGS+Mixer),A
1180+ 1E4B E1           	POP HL
1181+ 1E4C AF           	XOR A
1182+ 1E4D DD B6 0A     	OR (IX+CHP.COnOff)
1183+ 1E50 C8           	RET Z
1184+ 1E51 DD 35 0A     	DEC (IX+CHP.COnOff)
1185+ 1E54 C0           	RET NZ
1186+ 1E55 DD AE 15     	XOR (IX+CHP.Flags)
1187+ 1E58 DD 77 15     	LD (IX+CHP.Flags),A
1188+ 1E5B 1F           	RRA
1189+ 1E5C DD 7E 0B     	LD A,(IX+CHP.OnOffD)
1190+ 1E5F 38 03        	JR C,CH_ONDL
1191+ 1E61 DD 7E 0C     	LD A,(IX+CHP.OffOnD)
1192+ 1E64 DD 77 0A     CH_ONDL	LD (IX+CHP.COnOff),A
1193+ 1E67 C9           	RET
1194+ 1E68
1195+ 1E68 AF           PLAY_	XOR A
1196+ 1E69 FD 77 12     	LD (IY-100+VRS.AddToEn),A
1197+ 1E6C FD 77 1C     	LD (IY-100+VRS.AYREGS+Mixer),A
1198+ 1E6F 3D           	DEC A
1199+ 1E70 FD 77 22     	LD (IY-100+VRS.AYREGS+EnvTp),A
1200+ 1E73 FD 35 09     	DEC (IY-100+VRS.DelyCnt)
1201+ 1E76 C2 1E 1F     	JP NZ,PL2
1202+ 1E79 FD 35 BA     	DEC (IY-100+VRS.ChanA+CHP.NtSkCn)
1203+ 1E7C 20 6C        	JR NZ,PL1B
1204+ 1E7E FD 4E FE     	LD C,(IY-100+VRS.AdInPtA)
1205+ 1E81 FD 46 FF     	LD B,(IY-100+VRS.AdInPtA+1)
1206+ 1E84 0A           	LD A,(BC)
1207+ 1E85 A7           	AND A
1208+ 1E86 20 56        	JR NZ,PL1A
1209+ 1E88 57           	LD D,A
1210+ 1E89 FD 77 10     	LD (IY-100+VRS.Ns_Base),A
1211+ 1E8C FD 6E 04     	LD L,(IY-100+VRS.CrPsPtr)
1212+ 1E8F FD 66 05     	LD H,(IY-100+VRS.CrPsPtr+1)
1213+ 1E92 23           	INC HL
1214+ 1E93 7E           	LD A,(HL)
1215+ 1E94 3C           	INC A
1216+ 1E95 20 0B        	JR NZ,PLNLP
1217+ 1E97
1218+ 1E97              	IF LoopChecker
1219+ 1E97 CD 49 17     	CALL CHECKLP
1220+ 1E9A              	ENDIF
1221+ 1E9A
1222+ 1E9A FD 6E 06     	LD L,(IY-100+VRS.LPosPtr)
1223+ 1E9D FD 66 07     	LD H,(IY-100+VRS.LPosPtr+1)
1224+ 1EA0 7E           	LD A,(HL)
1225+ 1EA1 3C           	INC A
1226+ 1EA2 CD F6 19     PLNLP	CALL SETCPPT
1227+ 1EA5 3D           	DEC A
1228+ 1EA6 FD CB 9E 4E  	BIT 1,(IY-100+VRS.ModNum)
1229+ 1EAA 28 03        	JR Z,NoAlCo
1230+ 1EAC              TSSub	EQU $+1
1231+ 1EAC D6 D6        	SUB #D6
1232+ 1EAE 2F           	CPL
1233+ 1EAF              NoAlCo
1234+ 1EAF              		;PT2		PT3
1235+ 1EAF 3D           PsCalc	DEC A	;ADD A,A	NOP
1236+ 1EB0 3D           	DEC A	;ADD A,(HL)	NOP
1237+ 1EB1 87           	ADD A,A
1238+ 1EB2 5F           	LD E,A
1239+ 1EB3 CB 12        	RL D
1240+ 1EB5
1241+ 1EB5              	IF CurPosCounter
1242+ 1EB5 ~            	LD A,L
1243+ 1EB5 ~            	SUB (IY-100+VRS.PosSub)
1244+ 1EB5 ~            	LD (IY-100+VRS.CurPos),A
1245+ 1EB5              	ENDIF
1246+ 1EB5
1247+ 1EB5 FD 6E FC     	LD L,(IY-100+VRS.PatsPtr)
1248+ 1EB8 FD 66 FD     	LD H,(IY-100+VRS.PatsPtr+1)
1249+ 1EBB 19           	ADD HL,DE
1250+ 1EBC FD 5E F6     	LD E,(IY-100+VRS.MODADDR)
1251+ 1EBF FD 56 F7     	LD D,(IY-100+VRS.MODADDR+1)
1252+ 1EC2 ED 73 DC 1E  	LD (PSP_+1),SP
1253+ 1EC6 F9           	LD SP,HL
1254+ 1EC7 E1           	POP HL
1255+ 1EC8 19           	ADD HL,DE
1256+ 1EC9 44           	LD B,H
1257+ 1ECA 4D           	LD C,L
1258+ 1ECB E1           	POP HL
1259+ 1ECC 19           	ADD HL,DE
1260+ 1ECD FD 75 00     	LD (IY-100+VRS.AdInPtB),L
1261+ 1ED0 FD 74 01     	LD (IY-100+VRS.AdInPtB+1),H
1262+ 1ED3 E1           	POP HL
1263+ 1ED4 19           	ADD HL,DE
1264+ 1ED5 FD 75 02     	LD (IY-100+VRS.AdInPtC),L
1265+ 1ED8 FD 74 03     	LD (IY-100+VRS.AdInPtC+1),H
1266+ 1EDB 31 31 31     PSP_	LD SP,#3131
1267+ 1EDE 11 AB FF     PL1A	LD DE,VRS.ChanA+12-100
1268+ 1EE1 CD 19 1A     	CALL PTDECOD
1269+ 1EE4 FD 71 FE     	LD (IY-100+VRS.AdInPtA),C
1270+ 1EE7 FD 70 FF     	LD (IY-100+VRS.AdInPtA+1),B
1271+ 1EEA
1272+ 1EEA FD 35 D7     PL1B	DEC (IY-100+VRS.ChanB+CHP.NtSkCn)
1273+ 1EED 20 12        	JR NZ,PL1C
1274+ 1EEF 11 C8 FF     	LD DE,VRS.ChanB+12-100
1275+ 1EF2 FD 4E 00     	LD C,(IY-100+VRS.AdInPtB)
1276+ 1EF5 FD 46 01     	LD B,(IY-100+VRS.AdInPtB+1)
1277+ 1EF8 CD 19 1A     	CALL PTDECOD
1278+ 1EFB FD 71 00     	LD (IY-100+VRS.AdInPtB),C
1279+ 1EFE FD 70 01     	LD (IY-100+VRS.AdInPtB+1),B
1280+ 1F01
1281+ 1F01 FD 35 F4     PL1C	DEC (IY-100+VRS.ChanC+CHP.NtSkCn)
1282+ 1F04 20 12        	JR NZ,PL1D
1283+ 1F06 11 E5 FF     	LD DE,VRS.ChanC+12-100
1284+ 1F09 FD 4E 02     	LD C,(IY-100+VRS.AdInPtC)
1285+ 1F0C FD 46 03     	LD B,(IY-100+VRS.AdInPtC+1)
1286+ 1F0F CD 19 1A     	CALL PTDECOD
1287+ 1F12 FD 71 02     	LD (IY-100+VRS.AdInPtC),C
1288+ 1F15 FD 70 03     	LD (IY-100+VRS.AdInPtC+1),B
1289+ 1F18
1290+ 1F18 FD 7E 08     PL1D	LD A,(IY-100+VRS.Delay)
1291+ 1F1B FD 77 09     	LD (IY-100+VRS.DelyCnt),A
1292+ 1F1E
1293+ 1F1E 11 9F FF     PL2	LD DE,VRS.ChanA-100
1294+ 1F21 FD 6E 15     	LD L,(IY-100+VRS.AYREGS+TonA)
1295+ 1F24 FD 66 16     	LD H,(IY-100+VRS.AYREGS+TonA+1)
1296+ 1F27 CD F1 1C     	CALL CHREGS
1297+ 1F2A FD 75 15     	LD (IY-100+VRS.AYREGS+TonA),L
1298+ 1F2D FD 74 16     	LD (IY-100+VRS.AYREGS+TonA+1),H
1299+ 1F30              Ampl	EQU $+1
1300+ 1F30 3E 3E        	LD A,#3E
1301+ 1F32 FD 77 1D     	LD (IY-100+VRS.AYREGS+AmplA),A
1302+ 1F35 11 BC FF     	LD DE,VRS.ChanB-100
1303+ 1F38 FD 6E 17     	LD L,(IY-100+VRS.AYREGS+TonB)
1304+ 1F3B FD 66 18     	LD H,(IY-100+VRS.AYREGS+TonB+1)
1305+ 1F3E CD F1 1C     	CALL CHREGS
1306+ 1F41 FD 75 17     	LD (IY-100+VRS.AYREGS+TonB),L
1307+ 1F44 FD 74 18     	LD (IY-100+VRS.AYREGS+TonB+1),H
1308+ 1F47 3A 31 1F     	LD A,(Ampl)
1309+ 1F4A FD 77 1E     	LD (IY-100+VRS.AYREGS+AmplB),A
1310+ 1F4D 11 D9 FF     	LD DE,VRS.ChanC-100
1311+ 1F50 FD 6E 19     	LD L,(IY-100+VRS.AYREGS+TonC)
1312+ 1F53 FD 66 1A     	LD H,(IY-100+VRS.AYREGS+TonC+1)
1313+ 1F56 CD F1 1C     	CALL CHREGS
1314+ 1F59 FD 75 19     	LD (IY-100+VRS.AYREGS+TonC),L
1315+ 1F5C FD 74 1A     	LD (IY-100+VRS.AYREGS+TonC+1),H
1316+ 1F5F 3A 31 1F     	LD A,(Ampl)
1317+ 1F62 FD 77 1F     	LD (IY-100+VRS.AYREGS+AmplC),A
1318+ 1F65
1319+ 1F65 FD 7E 10     	LD A,(IY-100+VRS.Ns_Base)
1320+ 1F68 FD 86 11     	ADD (IY-100+VRS.AddToNs)
1321+ 1F6B FD 77 1B     	LD (IY-100+VRS.AYREGS+Noise),A
1322+ 1F6E
1323+ 1F6E FD 7E 12     	LD A,(IY-100+VRS.AddToEn)
1324+ 1F71 5F           	LD E,A
1325+ 1F72 87           	ADD A,A
1326+ 1F73 9F           	SBC A,A
1327+ 1F74 57           	LD D,A
1328+ 1F75 FD 6E 13     	LD L,(IY-100+VRS.EnvBase)
1329+ 1F78 FD 66 14     	LD H,(IY-100+VRS.EnvBase+1)
1330+ 1F7B 19           	ADD HL,DE
1331+ 1F7C FD 5E 0C     	LD E,(IY-100+VRS.CurESld)
1332+ 1F7F FD 56 0D     	LD D,(IY-100+VRS.CurESld+1)
1333+ 1F82 19           	ADD HL,DE
1334+ 1F83 FD 75 20     	LD (IY-100+VRS.AYREGS+Env),L
1335+ 1F86 FD 74 21     	LD (IY-100+VRS.AYREGS+Env+1),H
1336+ 1F89
1337+ 1F89 AF           	XOR A
1338+ 1F8A FD B6 0F     	OR (IY-100+VRS.CurEDel)
1339+ 1F8D C8           	RET Z
1340+ 1F8E FD 35 0F     	DEC (IY-100+VRS.CurEDel)
1341+ 1F91 C0           	RET NZ
1342+ 1F92 FD 7E 0E     	LD A,(IY-100+VRS.Env_Del)
1343+ 1F95 FD 77 0F     	LD (IY-100+VRS.CurEDel),A
1344+ 1F98 FD 6E 0A     	LD L,(IY-100+VRS.ESldAdd)
1345+ 1F9B FD 66 0B     	LD H,(IY-100+VRS.ESldAdd+1)
1346+ 1F9E 19           	ADD HL,DE
1347+ 1F9F C3 0B 1A     	JP SETESLD
1348+ 1FA2
1349+ 1FA2 FD 21 DA 20  PLAY    LD IY,VARS1+100
1350+ 1FA6 CD 68 1E     	CALL PLAY_
1351+ 1FA9 3A 75 20     	LD A,(is_ts)
1352+ 1FAC A7           	AND A
1353+ 1FAD 28 07        	JR Z,PL_nts
1354+ 1FAF FD 21 61 21  	LD IY,VARS2+100
1355+ 1FB3 CD 68 1E     	CALL PLAY_
1356+ 1FB6              PL_nts
1357+ 1FB6              	IF Basic
1358+ 1FB6 FD 21 3A 5C  	LD IY,#5C3A
1359+ 1FBA              	ENDIF
1360+ 1FBA
1361+ 1FBA 01 FD FF     ROUT	LD BC,#FFFD
1362+ 1FBD 3A 75 20     	LD A,(is_ts)
1363+ 1FC0 A7           	AND A
1364+ 1FC1 28 02        	JR Z,r_nts ;keep old standard
1365+ 1FC3 ED 41        	OUT (C),B
1366+ 1FC5 08           r_nts	EX AF,AF'
1367+ 1FC6
1368+ 1FC6              	IF ACBBAC
1369+ 1FC6 ~            	LD IX,VARS1+VRS.AYREGS
1370+ 1FC6              	ELSE
1371+ 1FC6 21 EF 20     	LD HL,VARS1+VRS.AYREGS
1372+ 1FC9              	ENDIF
1373+ 1FC9
1374+ 1FC9 CD D5 1F     	CALL ROUT_
1375+ 1FCC 08           	EX AF,AF'
1376+ 1FCD C8           	RET Z
1377+ 1FCE 42           	LD B,D
1378+ 1FCF 2F           	CPL
1379+ 1FD0 ED 79        	OUT (C),A
1380+ 1FD2
1381+ 1FD2              	IF ACBBAC
1382+ 1FD2 ~            	LD IX,VARS2+VRS.AYREGS
1383+ 1FD2              	ELSE
1384+ 1FD2 21 76 21     	LD HL,VARS2+VRS.AYREGS
1385+ 1FD5              	ENDIF
1386+ 1FD5
1387+ 1FD5              ROUT_
1388+ 1FD5              	IF ACBBAC
1389+ 1FD5 ~            	LD A,(SETUP)
1390+ 1FD5 ~            	AND 12
1391+ 1FD5 ~            	JR Z,ABC
1392+ 1FD5 ~            	ADD A,CHTABLE
1393+ 1FD5 ~            	LD E,A
1394+ 1FD5 ~            	ADC A,CHTABLE/256
1395+ 1FD5 ~            	SUB E
1396+ 1FD5 ~            	LD D,A
1397+ 1FD5 ~            	LD B,0
1398+ 1FD5 ~            	PUSH IX
1399+ 1FD5 ~            	POP HL
1400+ 1FD5 ~            	LD A,(DE)
1401+ 1FD5 ~            	INC DE
1402+ 1FD5 ~            	LD C,A
1403+ 1FD5 ~            	ADD HL,BC
1404+ 1FD5 ~            	LD A,(IX+TonB)
1405+ 1FD5 ~            	LD C,(HL)
1406+ 1FD5 ~            	LD (IX+TonB),C
1407+ 1FD5 ~            	LD (HL),A
1408+ 1FD5 ~            	INC HL
1409+ 1FD5 ~            	LD A,(IX+TonB+1)
1410+ 1FD5 ~            	LD C,(HL)
1411+ 1FD5 ~            	LD (IX+TonB+1),C
1412+ 1FD5 ~            	LD (HL),A
1413+ 1FD5 ~            	LD A,(DE)
1414+ 1FD5 ~            	INC DE
1415+ 1FD5 ~            	LD C,A
1416+ 1FD5 ~            	ADD HL,BC
1417+ 1FD5 ~            	LD A,(IX+AmplB)
1418+ 1FD5 ~            	LD C,(HL)
1419+ 1FD5 ~            	LD (IX+AmplB),C
1420+ 1FD5 ~            	LD (HL),A
1421+ 1FD5 ~            	LD A,(DE)
1422+ 1FD5 ~            	INC DE
1423+ 1FD5 ~            	LD (RxCA1),A
1424+ 1FD5 ~            	XOR 8
1425+ 1FD5 ~            	LD (RxCA2),A
1426+ 1FD5 ~            	LD A,(DE)
1427+ 1FD5 ~            	AND (IX+Mixer)
1428+ 1FD5 ~            	LD E,A
1429+ 1FD5 ~            	LD A,(IX+Mixer)
1430+ 1FD5 ~            RxCA1	DB #E6
1431+ 1FD5 ~            	AND %010010
1432+ 1FD5 ~            	OR E
1433+ 1FD5 ~            	LD E,A
1434+ 1FD5 ~            	LD A,(IX+Mixer)
1435+ 1FD5 ~            	AND %010010
1436+ 1FD5 ~            RxCA2	OR E
1437+ 1FD5 ~            	OR E
1438+ 1FD5 ~            	LD (IX+Mixer),A
1439+ 1FD5 ~            ABC
1440+ 1FD5              	ENDIF
1441+ 1FD5
1442+ 1FD5 AF           	XOR A
1443+ 1FD6 11 BF FF     	LD DE,#FFBF
1444+ 1FD9
1445+ 1FD9              	IF ACBBAC
1446+ 1FD9 ~            	LD BC,#FFFD
1447+ 1FD9 ~            	PUSH IX
1448+ 1FD9 ~            	POP HL
1449+ 1FD9              	ENDIF
1450+ 1FD9
1451+ 1FD9 ED 79        LOUT	OUT (C),A
1452+ 1FDB 43           	LD B,E
1453+ 1FDC ED A3        	OUTI
1454+ 1FDE 42           	LD B,D
1455+ 1FDF 3C           	INC A
1456+ 1FE0 FE 0D        	CP 13
1457+ 1FE2 20 F5        	JR NZ,LOUT
1458+ 1FE4 ED 79        	OUT (C),A
1459+ 1FE6 7E           	LD A,(HL)
1460+ 1FE7 A7           	AND A
1461+ 1FE8 F8           	RET M
1462+ 1FE9 43           	LD B,E
1463+ 1FEA ED 79        	OUT (C),A
1464+ 1FEC C9           	RET
1465+ 1FED
1466+ 1FED              	IF ACBBAC
1467+ 1FED ~            CHTABLE	EQU $-4
1468+ 1FED ~            	DB 4,5,15,%001001,0,7,7,%100100
1469+ 1FED              	ENDIF
1470+ 1FED
1471+ 1FED 64           NT_DATA	DB (T_NEW_0-T1_)*2
1472+ 1FEE 2A           	DB TCNEW_0-T_
1473+ 1FEF 65           	DB (T_OLD_0-T1_)*2+1
1474+ 1FF0 00           	DB TCOLD_0-T_
1475+ 1FF1 01           	DB (T_NEW_1-T1_)*2+1
1476+ 1FF2 0C           	DB TCNEW_1-T_
1477+ 1FF3 01           	DB (T_OLD_1-T1_)*2+1
1478+ 1FF4 0C           	DB TCOLD_1-T_
1479+ 1FF5 94           	DB (T_NEW_2-T1_)*2
1480+ 1FF6 35           	DB TCNEW_2-T_
1481+ 1FF7 30           	DB (T_OLD_2-T1_)*2
1482+ 1FF8 0E           	DB TCOLD_2-T_
1483+ 1FF9 60           	DB (T_NEW_3-T1_)*2
1484+ 1FFA 20           	DB TCNEW_3-T_
1485+ 1FFB 60           	DB (T_OLD_3-T1_)*2
1486+ 1FFC 21           	DB TCOLD_3-T_
1487+ 1FFD
1488+ 1FFD              T_
1489+ 1FFD
1490+ 1FFD 01 05 09 0B  TCOLD_0	DB #00+1,#04+1,#08+1,#0A+1,#0C+1,#0E+1,#12+1,#14+1
1490+ 2001 0D 0F 13 15
1491+ 2005 19 25 3D 00  	DB #18+1,#24+1,#3C+1,0
1492+ 2009 5D 00        TCOLD_1	DB #5C+1,0
1493+ 200B 31 37 4D 53  TCOLD_2	DB #30+1,#36+1,#4C+1,#52+1,#5E+1,#70+1,#82,#8C,#9C
1493+ 200F 5F 71 82 8C
1493+ 2013 9C
1494+ 2014 9E A0 A6 A8  	DB #9E,#A0,#A6,#A8,#AA,#AC,#AE,#AE,0
1494+ 2018 AA AC AE AE
1494+ 201C 00
1495+ 201D 57           TCNEW_3	DB #56+1
1496+ 201E 1F 23 25 29  TCOLD_3	DB #1E+1,#22+1,#24+1,#28+1,#2C+1,#2E+1,#32+1,#BE+1,0
1496+ 2022 2D 2F 33 BF
1496+ 2026 00
1497+ 2027 1D 21 23 27  TCNEW_0	DB #1C+1,#20+1,#22+1,#26+1,#2A+1,#2C+1,#30+1,#54+1
1497+ 202B 2B 2D 31 55
1498+ 202F BD BF 00     	DB #BC+1,#BE+1,0
1499+ 2032              TCNEW_1 EQU TCOLD_1
1500+ 2032 1B 21 25 29  TCNEW_2	DB #1A+1,#20+1,#24+1,#28+1,#2A+1,#3A+1,#4C+1,#5E+1
1500+ 2036 2B 3B 4D 5F
1501+ 203A BB BD BF 00  	DB #BA+1,#BC+1,#BE+1,0
1502+ 203E
1503+ 203E              PT3EMPTYORN EQU $-1
1504+ 203E 01 00        	DB 1,0
1505+ 2040
1506+ 2040              ;first 12 values of tone tables (packed)
1507+ 2040
player.asm(1508): warning: value 0xDD8 is truncated to 8bit value: 0xD8
1508+ 2040 0D D8        T_PACK	DB #06EC*2/256,#06EC*2
1509+ 2042 69           	DB #0755-#06EC
1510+ 2043 70           	DB #07C5-#0755
1511+ 2044 76           	DB #083B-#07C5
1512+ 2045 7D           	DB #08B8-#083B
1513+ 2046 85           	DB #093D-#08B8
1514+ 2047 8D           	DB #09CA-#093D
1515+ 2048 95           	DB #0A5F-#09CA
1516+ 2049 9D           	DB #0AFC-#0A5F
1517+ 204A A8           	DB #0BA4-#0AFC
1518+ 204B B1           	DB #0C55-#0BA4
1519+ 204C BB           	DB #0D10-#0C55
player.asm(1520): warning: value 0xCDA is truncated to 8bit value: 0xDA
1520+ 204D 0C DA        	DB #066D*2/256,#066D*2
1521+ 204F 62           	DB #06CF-#066D
1522+ 2050 68           	DB #0737-#06CF
1523+ 2051 6D           	DB #07A4-#0737
1524+ 2052 75           	DB #0819-#07A4
1525+ 2053 7B           	DB #0894-#0819
1526+ 2054 83           	DB #0917-#0894
1527+ 2055 8A           	DB #09A1-#0917
1528+ 2056 92           	DB #0A33-#09A1
1529+ 2057 9C           	DB #0ACF-#0A33
1530+ 2058 A4           	DB #0B73-#0ACF
1531+ 2059 AF           	DB #0C22-#0B73
1532+ 205A B8           	DB #0CDA-#0C22
player.asm(1533): warning: value 0xE08 is truncated to 8bit value: 0x08
1533+ 205B 0E 08        	DB #0704*2/256,#0704*2
1534+ 205D 6A           	DB #076E-#0704
1535+ 205E 72           	DB #07E0-#076E
1536+ 205F 78           	DB #0858-#07E0
1537+ 2060 7E           	DB #08D6-#0858
1538+ 2061 86           	DB #095C-#08D6
1539+ 2062 90           	DB #09EC-#095C
1540+ 2063 96           	DB #0A82-#09EC
1541+ 2064 A0           	DB #0B22-#0A82
1542+ 2065 AA           	DB #0BCC-#0B22
1543+ 2066 B4           	DB #0C80-#0BCC
1544+ 2067 BE           	DB #0D3E-#0C80
player.asm(1545): warning: value 0xFC0 is truncated to 8bit value: 0xC0
1545+ 2068 0F C0        	DB #07E0*2/256,#07E0*2
1546+ 206A 78           	DB #0858-#07E0
1547+ 206B 88           	DB #08E0-#0858
1548+ 206C 80           	DB #0960-#08E0
1549+ 206D 90           	DB #09F0-#0960
1550+ 206E 98           	DB #0A88-#09F0
1551+ 206F A0           	DB #0B28-#0A88
1552+ 2070 B0           	DB #0BD8-#0B28
1553+ 2071 A8           	DB #0C80-#0BD8
1554+ 2072 E0           	DB #0D60-#0C80
1555+ 2073 B0           	DB #0E10-#0D60
1556+ 2074 E8           	DB #0EF8-#0E10
1557+ 2075
1558+ 2075              ;vars from here can be stripped
1559+ 2075              ;you can move VARS to any other address
1560+ 2075
1561+ 2075              VARS
1562+ 2075
1563+ 2075 00           is_ts	DB 0
1564+ 2076
1565+ 2076              ;ChannelsVars
1566+ 2076              	STRUCT	CHP
1567+ 2076 ~            ;reset group
1568+ 2076 ~            PsInOr	DB 0
1569+ 2076 ~            PsInSm	DB 0
1570+ 2076 ~            CrAmSl	DB 0
1571+ 2076 ~            CrNsSl	DB 0
1572+ 2076 ~            CrEnSl	DB 0
1573+ 2076 ~            TSlCnt	DB 0
1574+ 2076 ~            CrTnSl	DW 0
1575+ 2076 ~            TnAcc	DW 0
1576+ 2076 ~            COnOff	DB 0
1577+ 2076 ~            ;reset group
1578+ 2076 ~
1579+ 2076 ~            OnOffD	DB 0
1580+ 2076 ~
1581+ 2076 ~            ;IX for PTDECOD here (+12)
1582+ 2076 ~            OffOnD	DB 0
1583+ 2076 ~            OrnPtr	DW 0
1584+ 2076 ~            SamPtr	DW 0
1585+ 2076 ~            NNtSkp	DB 0
1586+ 2076 ~            Note	DB 0
1587+ 2076 ~            SlToNt	DB 0
1588+ 2076 ~            Env_En	DB 0
1589+ 2076 ~            Flags	DB 0
1590+ 2076 ~             ;Enabled - 0, SimpleGliss - 2
1591+ 2076 ~            TnSlDl	DB 0
1592+ 2076 ~            TSlStp	DW 0
1593+ 2076 ~            TnDelt	DW 0
1594+ 2076 ~            NtSkCn	DB 0
1595+ 2076 ~            Volume	DB 0
1596+ 2076              	ENDS
1597+ 2076
1598+ 2076              	STRUCT	VRS
1599+ 2076 ~
1600+ 2076 ~            ;IF not works in STRUCT in SjASM :(
1601+ 2076 ~            ;	IF CurPosCounter
1602+ 2076 ~            CurPos	DB 0
1603+ 2076 ~            PosSub	DB 0
1604+ 2076 ~            ;	ENDIF
1605+ 2076 ~
1606+ 2076 ~            ModNum	DB 0 ;bit0: ChipNum
1607+ 2076 ~            	     ;bit1: 1-reversed patterns order (AlCo TS)
1608+ 2076 ~
1609+ 2076 ~            ChanA	DS CHP
1610+ 2076 ~            ChanB	DS CHP
1611+ 2076 ~            ChanC	DS CHP
1612+ 2076 ~
1613+ 2076 ~            ;GlobalVars
1614+ 2076 ~            MODADDR	DW 0
1615+ 2076 ~            OrnPtrs	DW 0
1616+ 2076 ~            SamPtrs	DW 0
1617+ 2076 ~            PatsPtr	DW 0
1618+ 2076 ~            AdInPtA	DW 0
1619+ 2076 ~            AdInPtB	DW 0
1620+ 2076 ~            AdInPtC	DW 0
1621+ 2076 ~            CrPsPtr	DW 0
1622+ 2076 ~            LPosPtr	DW 0
1623+ 2076 ~            Delay	DB 0
1624+ 2076 ~            DelyCnt	DB 0
1625+ 2076 ~            ESldAdd	DW 0
1626+ 2076 ~            CurESld	DW 0
1627+ 2076 ~            Env_Del	DB 0
1628+ 2076 ~            CurEDel	DB 0
1629+ 2076 ~            Ns_Base	DB 0
1630+ 2076 ~            AddToNs	DB 0
1631+ 2076 ~            AddToEn	DB 0
1632+ 2076 ~            EnvBase	DW 0
1633+ 2076 ~            AYREGS	DS 14
1634+ 2076              	ENDS
1635+ 2076
1636+ 2076 00 00 00...  VARS1	DS VRS
1637+ 20FD 00 00 00...  VARS2	DS VRS
1638+ 2184
1639+ 2184              VT_	EQU $-16
1640+ 2184 00 00 00...  	DS 256-16 ;CreatedVolumeTableAddress
1641+ 2274
1642+ 2274              T1_	EQU VT_+16 ;Tone tables data depacked here
1643+ 2274
1644+ 2274              T_OLD_1	EQU T1_
1645+ 2274              T_OLD_2	EQU T_OLD_1+24
1646+ 2274              T_OLD_3	EQU T_OLD_2+24
1647+ 2274              T_OLD_0	EQU T_OLD_3+2
1648+ 2274              T_NEW_0	EQU T_OLD_0
1649+ 2274              T_NEW_1	EQU T_OLD_1
1650+ 2274              T_NEW_2	EQU T_NEW_0+24
1651+ 2274              T_NEW_3	EQU T_OLD_3
1652+ 2274
1653+ 2274              PT2EMPTYORN EQU VT_+31 ;1,0,0 sequence
1654+ 2274
1655+ 2274 00 00 00...  NT_	DS 192 ;CreatedNoteTableAddress
1656+ 2334
1657+ 2334              VAR0END	EQU VT_+16 ;INIT zeroes from VARS to VAR0END-1
1658+ 2334
1659+ 2334              VARSEND EQU $
1660+ 2334
1661+ 2334              MDLADDR EQU outputBuffer
1662+ 2334
1663+ 2334              ;Release 0 steps:
1664+ 2334              ;04/21/2007
1665+ 2334              ;Works start (PTxPlay adaptation); first beta.
1666+ 2334              ;04/22/2007
1667+ 2334              ;Job finished; beta-testing.
1668+ 2334              ;04/23/2007
1669+ 2334              ;PT v3.7 TS mode corrected (after AlCo remarks).
1670+ 2334              ;04/29/2007
1671+ 2334              ;Added 1.XX and 2.XX special commands interpretation for PT3
1672+ 2334              ;modules of v3.7+.
1673+ 2334
1674+ 2334              ;Size (minimal build for ZX Spectrum):
1675+ 2334              ;Code block #908 bytes
1676+ 2334              ;Variables #2BF bytes (can be stripped)
1677+ 2334              ;Total size #908+#2BF=#BC7 (3015) bytes
1678+ 2334              	ENDMODULE
# file closed: player.asm
2588  2334 00 00 00...  	align 256
2589  2400              font
2590  2400              	incbin fontV6.chr ;шрифт
2591  2C00
2592  2C00              ;Переменные
2593  2C00 00           proc_next_find_focus_flag db 0 ;флаг внеочередного вызова процесса в фокусе
2594  2C01 00           Interrupt_new_flag db 0 ;флаг только что было прерывание
2595  2C02 00           uart_enable db 0; флаг есть порт uart
2596  2C03 00           proc_play_ay db 0 ;код процесса с музыкой AY
2597  2C04 00           proc_play_ay_slot2 db 0 ;страница с музыкой AY
2598  2C05 00           proc_play_ay_slot3 db 0 ;страница с музыкой AY
2599  2C06 00           scr_cur db 0 ;текущий активный экран
2600  2C07 00           proc_id_focus db 0 ;процесс, у которого фокус (видимый экран и доступно управление)
2601  2C08 00 00        proc_stack_addr_tmp dw 0 ; временно адрес стека
2602  2C0A 00 00        proc_stack_addr_tmp_wait dw 0 ; временно адрес стека
2603  2C0C 00           os_wait_flag db 0; флаг вызова os_wait
2604  2C0D 00           proc_next_find_skip_flag db 0; флаг дополнительных проверок переключения задач
2605  2C0E 00 00        proc_stack_addr_return_tmp dw 0 ;временно адрес возврата из прерываний
2606  2C10 00           key_proc_switch_flag db 0 ;флаг что нажата клавиша переключения задач
2607  2C11 00           key_lang_flag db 0 ;флаг что нажата клавиша rus lat
2608  2C12 00           key_caps_lock_switch_flag db 0 ;флаг что нажата клавиша caps lock
2609  2C13 00           key_graph_flag db 0 ;флаг что нажата клавиша graph
2610  2C14 00           key_sys_focus db 0 ;кнопка sys процесс в фокус
2611  2C15 00 00        FlgScanKeys_addr dw 0 ;адрес флаги драйвера
2612  2C17              ;stack_adr_sys dw 0 ;адрес системного стека
2613  2C17 00           page_slot2_cur db 0 ;текущая страница в слоте 2
2614  2C18 00           page_slot3_cur db 0 ;текущая страница в слоте 3
2615  2C19 00           page_slot2_cur_tmp db 0 ;текущая страница в слоте 2 временно
2616  2C1A 00           page_slot3_cur_tmp db 0 ;текущая страница в слоте 3 временно
2617  2C1B 00           con_scr_cur db 0 ;страница активного экрана пиксели
2618  2C1C 00           con_atr_cur db 0 ;страница активного экрана атрибуты
2619  2C1D 00           key_cur db 0 ;печатный код нажатой клавиши
2620  2C1E 00           file_id_cur db 0 ;временно id файла
2621  2C1F 00           mono_mode_id db 0 ;id процесса в режиме моно
2622  2C20
2623  2C20 00           proc_id_next db 0 ;код следующего процесса
2624  2C21 00 00        proc_stack_adr_tmp dw 0 ;временно адрес стека
2625  2C23 00           proc_id_cur db 0 ;id текущего процесса
2626  2C24 00           proc_id_cur_tmp db 0 ;временно id процесса
2627  2C25              ;proc_sys_name db "SYS        ",0 ;имя системного процесса
2628  2C25              ;proc_cmd_name db "CMD        ",0 ;имя процесса консоль
2629  2C25 00 00 00 00  sys_timer ds 4 ;таймер - счётчик прерываний
2630  2C29
2631  2C29 00 00 00...  	align 256
2632  2D00              proc_table ;данные процессов и приложений
2633  2D00 00 00 00...  	ds proc_descr_size*proc_max ;на командную строку, список страниц и прочее
2634  3500              	;#00 - id процесса
2635  3500              	;#01 - id родительского
2636  3500              	;#02 - страница #8000
2637  3500              	;#03 - страница #c000
2638  3500              	;#04 - страница буфер экран пиксели
2639  3500              	;#05 - страница буфер экран атрибуты
2640  3500              	;#06-07 - адрес стека
2641  3500              	;#08-09 - позиция аппаратного скрола
2642  3500              	;#0a-0b - координаты курсора
2643  3500              	;#0c-0d - цвет текста основной, цвет второй
2644  3500              	;#0e-0f - адрес вызова по прерыванию
2645  3500              	;#10-1b - Имя
2646  3500              	;#1c - графический режим (номер страницы. 0 - текстовый)
2647  3500              	;#1d - флаг, что процесс запросил os_wait
2648  3500
2649  3500              	;..#80 - верх стека
2650  3500
2651  3500              proc_page_table	;таблица занятых процессами страниц
2652  3500 00 00 00...  	ds 128 ;у GMX всего 128
2653  3580
2654  3580
2655  3580              esp_link_id_table;_id_table ;таблица соединений ESP
2656  3580              	;0 - id процесса (одновременно флаг "соединение используется")
2657  3580              	;1 - запрос соединения (=1 - активен)
2658  3580              	;2 - результат соединения (=1 - успешно, =255 - ошибка)
2659  3580              	;3 - запрос на отправку (=1 - активен)
2660  3580              	;4 - результат отправки (=1 - успешно, =255 - ошибка)
2661  3580              	;5 - запрос на приём (=1 - активен)
2662  3580              	;6 - результат приёма (=1 - успешно, =255 - ошибка)
2663  3580              	;7-8 - адрес назначения данных (для принятых)
2664  3580              	;9-10 - длина данных
2665  3580              	;11-13 -
2666  3580              	;14 - тип (TCP, UDP, SSL)
2667  3580              	;15-58 - адрес сервера, в конце 0
2668  3580              	;59-63 - порт сервера, в конце 0
2669  3580
2670  3580 00 00 00...  	ds 1*esp_link_id_table_size_item ;1 соединение
2671  35C0
2672  35C0              ; esp_buffer_flag ;флаги управления буфером ESP
2673  35C0              	; ;0 - буфер занят системным процессом (=1 - идёт передача)
2674  35C0              	; ;1-2 - длина данных
2675  35C0              	; ds 1
2676  35C0
2677  35C0
2678  35C0              ; proc_name_01	db "radio.apg",0
2679  35C0              ; proc_name_02	db "moonr.apg",0
2680  35C0              ; proc_name_03	db "nc.apg",0
2681  35C0 73 79 73 2E  proc_name_sys	db "sys.osg",0
2681  35C4 6F 73 67 00
2682  35C8              ; proc_name_net	db "net.apg",0
2683  35C8
2684  35C8
2685  35C8              ;Константы
2686  35C8              uart_port equ #EF ;порт
2687  35C8              outputBuffer equ #c000 ;адрес файла для плеера AY
2688  35C8              proc_color_def equ 7 ;цвет текста консоли
2689  35C8              proc_color2_def equ #c ;цвет текста консоли 2 яркий
2690  35C8              function_max equ 42+1 ;всего функций
2691  35C8              proc_size_max equ #80 ;максимальный размер приложения старший байт
2692  35C8              proc_descr_size equ 256 ;область памяти на одно приложение
2693  35C8              proc_max equ 8 ;максимальное количество приложений
2694  35C8              page_max equ drvgmx.page_table_end-drvgmx.page_table ;всего доступных страниц из 128
2695  35C8              proc_id_system equ 1 ;код системного процесса
2696  35C8              ;proc_stack equ #4000;адрес стека для процессов
2697  35C8              ;proc_stack_size equ 128 ;размер стека для процесса
2698  35C8              con_scr_real equ #39 ;экран физический
2699  35C8              con_atr_real equ #79 ;атрибуты
2700  35C8              ;page_slot2_def equ 2 ;страница по умолчанию слот 2
2701  35C8              ;page_slot3_def equ 1 ;страница по умолчанию слот 3
2702  35C8              proc_switch_key equ #1b ;код перключения задач sh+Enter
2703  35C8              ;esp_max_link_id equ 5 ;всего соединений ESP
2704  35C8              esp_link_id_table_size_item equ 64 ;размер элемента в таблице соединений
2705  35C8
2706  35C8              ;Сообщения
2707  35C8              msg_init_uart_found
2708  35C8 55 41 52 54  	db "UART #EF found",13,10,0
2708  35CC 20 23 45 46
2708  35D0 20 66 6F 75
2708  35D4 6E 64 0D 0A
2708  35D8 00
2709  35D9              msg_init_uart_not_found
2710  35D9 55 41 52 54  	db "UART #EF not found",13,10,0
2710  35DD 20 23 45 46
2710  35E1 20 6E 6F 74
2710  35E5 20 66 6F 75
2710  35E9 6E 64 0D 0A
2710  35ED 00
2711  35EE              msg_proc_max
2712  35EE 4E 6F 74 20  	db "Not enough processes",13,10,0
2712  35F2 65 6E 6F 75
2712  35F6 67 68 20 70
2712  35FA 72 6F 63 65
2712  35FE 73 73 65 73
2712  3602 0D 0A 00
2713  3605              msg_mem_max
2714  3605 4E 6F 74 20  	db "Not enough memory",13,10,0
2714  3609 65 6E 6F 75
2714  360D 67 68 20 6D
2714  3611 65 6D 6F 72
2714  3615 79 0D 0A 00
2715  3619
2716  3619
2717  3619
2718  3619              msg_ver_os
2719  3619 4F 53 20 76  	db "OS ver 2025.08.05",13,10,0
2719  361D 65 72 20 32
2719  3621 30 32 35 2E
2719  3625 30 38 2E 30
2719  3629 35 0D 0A 00
2720  362D
2721  362D
2722  362D
2723  362D
2724  362D
2725  362D
2726  362D              ; start_sys_incl
2727  362D              	; incbin sys.apg ;
2728  362D              ; end_sys_incl
2729  362D
2730  362D              ; start_cmd_incl
2731  362D              	; incbin cmd.apg ;
2732  362D              ; end_cmd_incl
2733  362D
2734  362D              	;Последний перед #4000 буфер для данных от ESP
2735  362D 00 00 00...  esp_buffer ds 1500 ;буфер для обмена с ESP
2736  3C09
2737  3C09              end_os_main
2738  3C09              	SAVETRD "OS.TRD",|"OS.C",start_os_main,$-start_os_main ;сохранить в TRD
2739  3C09              	SAVEBIN "os.c",start_os_main,$-start_os_main ;сохранить для FAT
2740  3C09
2741  3C09              	;манипуляции для создания hobeta
2742  3C09              	org #c000
2743  C000              	incbin "os.c"
2744  FC09              	SAVEHOB "os.$c","os.C",#C000,end_os_main-start_os_main ;
2745  FC09
2746  FC09
2747  FC09
2748  FC09
2749  FC09
# file closed: os_main.asm
